ARM GAS  /tmp/ccc7Znev.s 			page 1


   1              		.cpu cortex-m0
   2              		.eabi_attribute 20, 1
   3              		.eabi_attribute 21, 1
   4              		.eabi_attribute 23, 3
   5              		.eabi_attribute 24, 1
   6              		.eabi_attribute 25, 1
   7              		.eabi_attribute 26, 1
   8              		.eabi_attribute 30, 2
   9              		.eabi_attribute 34, 0
  10              		.eabi_attribute 18, 4
  11              		.file	"heap_4.c"
  12              		.text
  13              		.section	.text.pvPortMalloc,"ax",%progbits
  14              		.align	1
  15              		.p2align 2,,3
  16              		.global	pvPortMalloc
  17              		.arch armv6s-m
  18              		.syntax unified
  19              		.code	16
  20              		.thumb_func
  21              		.fpu softvfp
  23              	pvPortMalloc:
  24              		@ args = 0, pretend = 0, frame = 0
  25              		@ frame_needed = 0, uses_anonymous_args = 0
  26 0000 F0B5     		push	{r4, r5, r6, r7, lr}
  27 0002 D646     		mov	lr, r10
  28 0004 4646     		mov	r6, r8
  29 0006 4F46     		mov	r7, r9
  30 0008 C0B5     		push	{r6, r7, lr}
  31 000a 0400     		movs	r4, r0
  32 000c FFF7FEFF 		bl	vTaskSuspendAll
  33 0010 4E4D     		ldr	r5, .L44
  34 0012 2E68     		ldr	r6, [r5]
  35 0014 002E     		cmp	r6, #0
  36 0016 3AD0     		beq	.L2
  37 0018 4D4B     		ldr	r3, .L44+4
  38 001a 1B68     		ldr	r3, [r3]
  39 001c 9C46     		mov	ip, r3
  40              	.L3:
  41 001e 6346     		mov	r3, ip
  42 0020 2342     		tst	r3, r4
  43 0022 2BD1     		bne	.L6
  44 0024 002C     		cmp	r4, #0
  45 0026 29D0     		beq	.L6
  46 0028 2000     		movs	r0, r4
  47 002a 0723     		movs	r3, #7
  48 002c 0830     		adds	r0, r0, #8
  49 002e 0342     		tst	r3, r0
  50 0030 01D0     		beq	.L7
  51 0032 9843     		bics	r0, r3
  52 0034 0830     		adds	r0, r0, #8
  53              	.L7:
  54 0036 0028     		cmp	r0, #0
  55 0038 20D0     		beq	.L6
  56 003a 464B     		ldr	r3, .L44+8
  57 003c 9A46     		mov	r10, r3
  58 003e 1B68     		ldr	r3, [r3]
ARM GAS  /tmp/ccc7Znev.s 			page 2


  59 0040 9846     		mov	r8, r3
  60 0042 8342     		cmp	r3, r0
  61 0044 1AD3     		bcc	.L6
  62 0046 444A     		ldr	r2, .L44+12
  63 0048 1300     		movs	r3, r2
  64 004a 1768     		ldr	r7, [r2]
  65 004c 04E0     		b	.L9
  66              	.L39:
  67 004e 3D68     		ldr	r5, [r7]
  68 0050 002D     		cmp	r5, #0
  69 0052 04D0     		beq	.L8
  70 0054 3B00     		movs	r3, r7
  71 0056 2F00     		movs	r7, r5
  72              	.L9:
  73 0058 7968     		ldr	r1, [r7, #4]
  74 005a 8142     		cmp	r1, r0
  75 005c F7D3     		bcc	.L39
  76              	.L8:
  77 005e B742     		cmp	r7, r6
  78 0060 0CD0     		beq	.L6
  79 0062 3D00     		movs	r5, r7
  80 0064 3C68     		ldr	r4, [r7]
  81 0066 0835     		adds	r5, r5, #8
  82 0068 1C60     		str	r4, [r3]
  83 006a 0B1A     		subs	r3, r1, r0
  84 006c 9946     		mov	r9, r3
  85 006e 102B     		cmp	r3, #16
  86 0070 46D9     		bls	.L10
  87 0072 3B18     		adds	r3, r7, r0
  88 0074 5907     		lsls	r1, r3, #29
  89 0076 2CD0     		beq	.L11
  90              		.syntax divided
  91              	@ 194 "Middlewares/Third_Party/FreeRTOS/Source/portable/MemMang/heap_4.c" 1
  92 0078 72B6     		 cpsid i 
  93              	@ 0 "" 2
  94              		.thumb
  95              		.syntax unified
  96              	.L12:
  97 007a FEE7     		b	.L12
  98              	.L6:
  99 007c FFF7FEFF 		bl	xTaskResumeAll
 100 0080 0025     		movs	r5, #0
 101              	.L1:
 102 0082 2800     		movs	r0, r5
 103              		@ sp needed
 104 0084 1CBC     		pop	{r2, r3, r4}
 105 0086 9046     		mov	r8, r2
 106 0088 9946     		mov	r9, r3
 107 008a A246     		mov	r10, r4
 108 008c F0BD     		pop	{r4, r5, r6, r7, pc}
 109              	.L2:
 110 008e 0721     		movs	r1, #7
 111 0090 324A     		ldr	r2, .L44+16
 112 0092 1142     		tst	r1, r2
 113 0094 49D0     		beq	.L40
 114 0096 D31D     		adds	r3, r2, #7
 115 0098 8B43     		bics	r3, r1
ARM GAS  /tmp/ccc7Znev.s 			page 3


 116 009a 8021     		movs	r1, #128
 117 009c 8900     		lsls	r1, r1, #2
 118 009e 5118     		adds	r1, r2, r1
 119 00a0 1A00     		movs	r2, r3
 120              	.L5:
 121 00a2 0020     		movs	r0, #0
 122 00a4 2C4E     		ldr	r6, .L44+12
 123 00a6 0839     		subs	r1, r1, #8
 124 00a8 7060     		str	r0, [r6, #4]
 125 00aa 3260     		str	r2, [r6]
 126 00ac 0726     		movs	r6, #7
 127 00ae B143     		bics	r1, r6
 128 00b0 CB1A     		subs	r3, r1, r3
 129 00b2 4860     		str	r0, [r1, #4]
 130 00b4 0860     		str	r0, [r1]
 131 00b6 1160     		str	r1, [r2]
 132 00b8 5360     		str	r3, [r2, #4]
 133 00ba 294A     		ldr	r2, .L44+20
 134 00bc 0E00     		movs	r6, r1
 135 00be 1360     		str	r3, [r2]
 136 00c0 244A     		ldr	r2, .L44+8
 137 00c2 2960     		str	r1, [r5]
 138 00c4 1360     		str	r3, [r2]
 139 00c6 8023     		movs	r3, #128
 140 00c8 214A     		ldr	r2, .L44+4
 141 00ca 1B06     		lsls	r3, r3, #24
 142 00cc 9C46     		mov	ip, r3
 143 00ce 1360     		str	r3, [r2]
 144 00d0 A5E7     		b	.L3
 145              	.L11:
 146 00d2 4946     		mov	r1, r9
 147 00d4 5960     		str	r1, [r3, #4]
 148 00d6 7860     		str	r0, [r7, #4]
 149              	.L13:
 150 00d8 1000     		movs	r0, r2
 151 00da 1268     		ldr	r2, [r2]
 152 00dc 9342     		cmp	r3, r2
 153 00de FBD8     		bhi	.L13
 154 00e0 4168     		ldr	r1, [r0, #4]
 155 00e2 4418     		adds	r4, r0, r1
 156 00e4 A342     		cmp	r3, r4
 157 00e6 25D1     		bne	.L41
 158 00e8 5B68     		ldr	r3, [r3, #4]
 159 00ea C918     		adds	r1, r1, r3
 160 00ec 0300     		movs	r3, r0
 161 00ee 4160     		str	r1, [r0, #4]
 162              	.L15:
 163 00f0 5C18     		adds	r4, r3, r1
 164 00f2 A242     		cmp	r2, r4
 165 00f4 20D0     		beq	.L42
 166              	.L16:
 167 00f6 1A60     		str	r2, [r3]
 168              	.L18:
 169 00f8 9842     		cmp	r0, r3
 170 00fa 00D0     		beq	.L37
 171 00fc 0360     		str	r3, [r0]
 172              	.L37:
ARM GAS  /tmp/ccc7Znev.s 			page 4


 173 00fe 7968     		ldr	r1, [r7, #4]
 174              	.L10:
 175 0100 4346     		mov	r3, r8
 176 0102 5246     		mov	r2, r10
 177 0104 5B1A     		subs	r3, r3, r1
 178 0106 1360     		str	r3, [r2]
 179 0108 154A     		ldr	r2, .L44+20
 180 010a 1068     		ldr	r0, [r2]
 181 010c 8342     		cmp	r3, r0
 182 010e 0AD3     		bcc	.L43
 183              	.L20:
 184 0110 6346     		mov	r3, ip
 185 0112 0B43     		orrs	r3, r1
 186 0114 7B60     		str	r3, [r7, #4]
 187 0116 0023     		movs	r3, #0
 188 0118 3B60     		str	r3, [r7]
 189 011a FFF7FEFF 		bl	xTaskResumeAll
 190 011e 6B07     		lsls	r3, r5, #29
 191 0120 AFD0     		beq	.L1
 192              		.syntax divided
 193              	@ 258 "Middlewares/Third_Party/FreeRTOS/Source/portable/MemMang/heap_4.c" 1
 194 0122 72B6     		 cpsid i 
 195              	@ 0 "" 2
 196              		.thumb
 197              		.syntax unified
 198              	.L22:
 199 0124 FEE7     		b	.L22
 200              	.L43:
 201 0126 1360     		str	r3, [r2]
 202 0128 F2E7     		b	.L20
 203              	.L40:
 204 012a 8023     		movs	r3, #128
 205 012c 9B00     		lsls	r3, r3, #2
 206 012e D118     		adds	r1, r2, r3
 207 0130 1300     		movs	r3, r2
 208 0132 B6E7     		b	.L5
 209              	.L41:
 210 0134 5968     		ldr	r1, [r3, #4]
 211 0136 DBE7     		b	.L15
 212              	.L42:
 213 0138 B242     		cmp	r2, r6
 214 013a DCD0     		beq	.L16
 215 013c 5468     		ldr	r4, [r2, #4]
 216 013e 1268     		ldr	r2, [r2]
 217 0140 A146     		mov	r9, r4
 218 0142 4944     		add	r1, r1, r9
 219 0144 5960     		str	r1, [r3, #4]
 220 0146 1A60     		str	r2, [r3]
 221 0148 D6E7     		b	.L18
 222              	.L45:
 223 014a C046     		.align	2
 224              	.L44:
 225 014c 00000000 		.word	.LANCHOR1
 226 0150 00000000 		.word	.LANCHOR2
 227 0154 00000000 		.word	.LANCHOR4
 228 0158 00000000 		.word	.LANCHOR0
 229 015c 00000000 		.word	ucHeap
ARM GAS  /tmp/ccc7Znev.s 			page 5


 230 0160 00000000 		.word	.LANCHOR3
 232              		.section	.text.vPortFree,"ax",%progbits
 233              		.align	1
 234              		.p2align 2,,3
 235              		.global	vPortFree
 236              		.syntax unified
 237              		.code	16
 238              		.thumb_func
 239              		.fpu softvfp
 241              	vPortFree:
 242              		@ args = 0, pretend = 0, frame = 0
 243              		@ frame_needed = 0, uses_anonymous_args = 0
 244 0000 70B5     		push	{r4, r5, r6, lr}
 245 0002 041E     		subs	r4, r0, #0
 246 0004 2BD0     		beq	.L46
 247 0006 1C4A     		ldr	r2, .L64
 248 0008 083C     		subs	r4, r4, #8
 249 000a 6368     		ldr	r3, [r4, #4]
 250 000c 1268     		ldr	r2, [r2]
 251 000e 1A42     		tst	r2, r3
 252 0010 04D0     		beq	.L62
 253 0012 2168     		ldr	r1, [r4]
 254 0014 0029     		cmp	r1, #0
 255 0016 03D0     		beq	.L50
 256              		.syntax divided
 257              	@ 279 "Middlewares/Third_Party/FreeRTOS/Source/portable/MemMang/heap_4.c" 1
 258 0018 72B6     		 cpsid i 
 259              	@ 0 "" 2
 260              		.thumb
 261              		.syntax unified
 262              	.L51:
 263 001a FEE7     		b	.L51
 264              	.L62:
 265              		.syntax divided
 266              	@ 278 "Middlewares/Third_Party/FreeRTOS/Source/portable/MemMang/heap_4.c" 1
 267 001c 72B6     		 cpsid i 
 268              	@ 0 "" 2
 269              		.thumb
 270              		.syntax unified
 271              	.L49:
 272 001e FEE7     		b	.L49
 273              	.L50:
 274 0020 2500     		movs	r5, r4
 275 0022 9343     		bics	r3, r2
 276 0024 6360     		str	r3, [r4, #4]
 277 0026 FFF7FEFF 		bl	vTaskSuspendAll
 278 002a 144A     		ldr	r2, .L64+4
 279 002c 6168     		ldr	r1, [r4, #4]
 280 002e 1368     		ldr	r3, [r2]
 281 0030 5B18     		adds	r3, r3, r1
 282 0032 1360     		str	r3, [r2]
 283 0034 124B     		ldr	r3, .L64+8
 284              	.L52:
 285 0036 1A00     		movs	r2, r3
 286 0038 1B68     		ldr	r3, [r3]
 287 003a 9C42     		cmp	r4, r3
 288 003c FBD8     		bhi	.L52
ARM GAS  /tmp/ccc7Znev.s 			page 6


 289 003e 5068     		ldr	r0, [r2, #4]
 290 0040 1618     		adds	r6, r2, r0
 291 0042 B442     		cmp	r4, r6
 292 0044 02D1     		bne	.L53
 293 0046 1500     		movs	r5, r2
 294 0048 0918     		adds	r1, r1, r0
 295 004a 5160     		str	r1, [r2, #4]
 296              	.L53:
 297 004c 6818     		adds	r0, r5, r1
 298 004e 8342     		cmp	r3, r0
 299 0050 06D0     		beq	.L63
 300              	.L54:
 301 0052 2B60     		str	r3, [r5]
 302              	.L56:
 303 0054 AA42     		cmp	r2, r5
 304 0056 00D0     		beq	.L57
 305 0058 1560     		str	r5, [r2]
 306              	.L57:
 307 005a FFF7FEFF 		bl	xTaskResumeAll
 308              	.L46:
 309              		@ sp needed
 310 005e 70BD     		pop	{r4, r5, r6, pc}
 311              	.L63:
 312 0060 0848     		ldr	r0, .L64+12
 313 0062 0068     		ldr	r0, [r0]
 314 0064 8342     		cmp	r3, r0
 315 0066 F4D0     		beq	.L54
 316 0068 5868     		ldr	r0, [r3, #4]
 317 006a 1B68     		ldr	r3, [r3]
 318 006c 8446     		mov	ip, r0
 319 006e 6144     		add	r1, r1, ip
 320 0070 6960     		str	r1, [r5, #4]
 321 0072 2B60     		str	r3, [r5]
 322 0074 EEE7     		b	.L56
 323              	.L65:
 324 0076 C046     		.align	2
 325              	.L64:
 326 0078 00000000 		.word	.LANCHOR2
 327 007c 00000000 		.word	.LANCHOR4
 328 0080 00000000 		.word	.LANCHOR0
 329 0084 00000000 		.word	.LANCHOR1
 331              		.section	.text.xPortGetFreeHeapSize,"ax",%progbits
 332              		.align	1
 333              		.p2align 2,,3
 334              		.global	xPortGetFreeHeapSize
 335              		.syntax unified
 336              		.code	16
 337              		.thumb_func
 338              		.fpu softvfp
 340              	xPortGetFreeHeapSize:
 341              		@ args = 0, pretend = 0, frame = 0
 342              		@ frame_needed = 0, uses_anonymous_args = 0
 343              		@ link register save eliminated.
 344 0000 014B     		ldr	r3, .L67
 345              		@ sp needed
 346 0002 1868     		ldr	r0, [r3]
 347 0004 7047     		bx	lr
ARM GAS  /tmp/ccc7Znev.s 			page 7


 348              	.L68:
 349 0006 C046     		.align	2
 350              	.L67:
 351 0008 00000000 		.word	.LANCHOR4
 353              		.section	.text.xPortGetMinimumEverFreeHeapSize,"ax",%progbits
 354              		.align	1
 355              		.p2align 2,,3
 356              		.global	xPortGetMinimumEverFreeHeapSize
 357              		.syntax unified
 358              		.code	16
 359              		.thumb_func
 360              		.fpu softvfp
 362              	xPortGetMinimumEverFreeHeapSize:
 363              		@ args = 0, pretend = 0, frame = 0
 364              		@ frame_needed = 0, uses_anonymous_args = 0
 365              		@ link register save eliminated.
 366 0000 014B     		ldr	r3, .L70
 367              		@ sp needed
 368 0002 1868     		ldr	r0, [r3]
 369 0004 7047     		bx	lr
 370              	.L71:
 371 0006 C046     		.align	2
 372              	.L70:
 373 0008 00000000 		.word	.LANCHOR3
 375              		.section	.text.vPortInitialiseBlocks,"ax",%progbits
 376              		.align	1
 377              		.p2align 2,,3
 378              		.global	vPortInitialiseBlocks
 379              		.syntax unified
 380              		.code	16
 381              		.thumb_func
 382              		.fpu softvfp
 384              	vPortInitialiseBlocks:
 385              		@ args = 0, pretend = 0, frame = 0
 386              		@ frame_needed = 0, uses_anonymous_args = 0
 387              		@ link register save eliminated.
 388              		@ sp needed
 389 0000 7047     		bx	lr
 391 0002 C046     		.section	.bss.pxEnd,"aw",%nobits
 392              		.align	2
 393              		.set	.LANCHOR1,. + 0
 396              	pxEnd:
 397 0000 00000000 		.space	4
 398              		.section	.bss.ucHeap,"aw",%nobits
 399              		.align	2
 402              	ucHeap:
 403 0000 00000000 		.space	512
 403      00000000 
 403      00000000 
 403      00000000 
 403      00000000 
 404              		.section	.bss.xBlockAllocatedBit,"aw",%nobits
 405              		.align	2
 406              		.set	.LANCHOR2,. + 0
 409              	xBlockAllocatedBit:
 410 0000 00000000 		.space	4
 411              		.section	.bss.xFreeBytesRemaining,"aw",%nobits
ARM GAS  /tmp/ccc7Znev.s 			page 8


 412              		.align	2
 413              		.set	.LANCHOR4,. + 0
 416              	xFreeBytesRemaining:
 417 0000 00000000 		.space	4
 418              		.section	.bss.xMinimumEverFreeBytesRemaining,"aw",%nobits
 419              		.align	2
 420              		.set	.LANCHOR3,. + 0
 423              	xMinimumEverFreeBytesRemaining:
 424 0000 00000000 		.space	4
 425              		.section	.bss.xStart,"aw",%nobits
 426              		.align	2
 427              		.set	.LANCHOR0,. + 0
 430              	xStart:
 431 0000 00000000 		.space	8
 431      00000000 
 432              		.ident	"GCC: (15:9-2019-q4-0ubuntu1) 9.2.1 20191025 (release) [ARM/arm-9-branch revision 277599]"
ARM GAS  /tmp/ccc7Znev.s 			page 9

