ARM GAS  /tmp/ccryxT4X.s 			page 1


   1              		.cpu cortex-m0
   2              		.eabi_attribute 20, 1
   3              		.eabi_attribute 21, 1
   4              		.eabi_attribute 23, 3
   5              		.eabi_attribute 24, 1
   6              		.eabi_attribute 25, 1
   7              		.eabi_attribute 26, 1
   8              		.eabi_attribute 30, 2
   9              		.eabi_attribute 34, 0
  10              		.eabi_attribute 18, 4
  11              		.file	"queue.c"
  12              		.text
  13              		.section	.text.prvCopyDataToQueue,"ax",%progbits
  14              		.align	1
  15              		.p2align 2,,3
  16              		.arch armv6s-m
  17              		.syntax unified
  18              		.code	16
  19              		.thumb_func
  20              		.fpu softvfp
  22              	prvCopyDataToQueue:
  23              		@ args = 0, pretend = 0, frame = 0
  24              		@ frame_needed = 0, uses_anonymous_args = 0
  25 0000 70B5     		push	{r4, r5, r6, lr}
  26 0002 1600     		movs	r6, r2
  27 0004 026C     		ldr	r2, [r0, #64]
  28 0006 0400     		movs	r4, r0
  29 0008 856B     		ldr	r5, [r0, #56]
  30 000a 002A     		cmp	r2, #0
  31 000c 06D1     		bne	.L2
  32 000e 0668     		ldr	r6, [r0]
  33 0010 002E     		cmp	r6, #0
  34 0012 2AD0     		beq	.L3
  35              	.L10:
  36 0014 0135     		adds	r5, r5, #1
  37              	.L9:
  38 0016 0020     		movs	r0, #0
  39              	.L4:
  40 0018 A563     		str	r5, [r4, #56]
  41              		@ sp needed
  42 001a 70BD     		pop	{r4, r5, r6, pc}
  43              	.L2:
  44 001c 002E     		cmp	r6, #0
  45 001e 0FD1     		bne	.L5
  46 0020 8068     		ldr	r0, [r0, #8]
  47 0022 FFF7FEFF 		bl	memcpy
  48 0026 226C     		ldr	r2, [r4, #64]
  49 0028 A368     		ldr	r3, [r4, #8]
  50 002a 9446     		mov	ip, r2
  51 002c 6268     		ldr	r2, [r4, #4]
  52 002e 6344     		add	r3, r3, ip
  53 0030 A360     		str	r3, [r4, #8]
  54 0032 9342     		cmp	r3, r2
  55 0034 EED3     		bcc	.L10
  56 0036 2368     		ldr	r3, [r4]
  57 0038 0020     		movs	r0, #0
  58 003a A360     		str	r3, [r4, #8]
ARM GAS  /tmp/ccryxT4X.s 			page 2


  59 003c 0135     		adds	r5, r5, #1
  60 003e EBE7     		b	.L4
  61              	.L5:
  62 0040 C068     		ldr	r0, [r0, #12]
  63 0042 FFF7FEFF 		bl	memcpy
  64 0046 E168     		ldr	r1, [r4, #12]
  65 0048 236C     		ldr	r3, [r4, #64]
  66 004a 5A42     		rsbs	r2, r3, #0
  67 004c CB1A     		subs	r3, r1, r3
  68 004e 2168     		ldr	r1, [r4]
  69 0050 E360     		str	r3, [r4, #12]
  70 0052 8B42     		cmp	r3, r1
  71 0054 03D2     		bcs	.L7
  72 0056 6368     		ldr	r3, [r4, #4]
  73 0058 9C46     		mov	ip, r3
  74 005a 6244     		add	r2, r2, ip
  75 005c E260     		str	r2, [r4, #12]
  76              	.L7:
  77 005e 022E     		cmp	r6, #2
  78 0060 D8D1     		bne	.L10
  79 0062 002D     		cmp	r5, #0
  80 0064 D7D1     		bne	.L9
  81 0066 0135     		adds	r5, r5, #1
  82 0068 D5E7     		b	.L9
  83              	.L3:
  84 006a 4068     		ldr	r0, [r0, #4]
  85 006c FFF7FEFF 		bl	xTaskPriorityDisinherit
  86 0070 0135     		adds	r5, r5, #1
  87 0072 6660     		str	r6, [r4, #4]
  88 0074 D0E7     		b	.L4
  90 0076 C046     		.section	.text.xQueueGenericReset,"ax",%progbits
  91              		.align	1
  92              		.p2align 2,,3
  93              		.global	xQueueGenericReset
  94              		.syntax unified
  95              		.code	16
  96              		.thumb_func
  97              		.fpu softvfp
  99              	xQueueGenericReset:
 100              		@ args = 0, pretend = 0, frame = 0
 101              		@ frame_needed = 0, uses_anonymous_args = 0
 102 0000 70B5     		push	{r4, r5, r6, lr}
 103 0002 0400     		movs	r4, r0
 104 0004 0D00     		movs	r5, r1
 105 0006 0028     		cmp	r0, #0
 106 0008 1BD0     		beq	.L22
 107 000a FFF7FEFF 		bl	vPortEnterCritical
 108 000e 216C     		ldr	r1, [r4, #64]
 109 0010 E36B     		ldr	r3, [r4, #60]
 110 0012 2268     		ldr	r2, [r4]
 111 0014 4B43     		muls	r3, r1
 112 0016 D018     		adds	r0, r2, r3
 113 0018 5B1A     		subs	r3, r3, r1
 114 001a D318     		adds	r3, r2, r3
 115 001c 6060     		str	r0, [r4, #4]
 116 001e A260     		str	r2, [r4, #8]
 117 0020 E360     		str	r3, [r4, #12]
ARM GAS  /tmp/ccryxT4X.s 			page 3


 118 0022 4422     		movs	r2, #68
 119 0024 FF23     		movs	r3, #255
 120 0026 0020     		movs	r0, #0
 121 0028 A063     		str	r0, [r4, #56]
 122 002a A354     		strb	r3, [r4, r2]
 123 002c 0132     		adds	r2, r2, #1
 124 002e A354     		strb	r3, [r4, r2]
 125 0030 002D     		cmp	r5, #0
 126 0032 11D1     		bne	.L15
 127 0034 2369     		ldr	r3, [r4, #16]
 128 0036 002B     		cmp	r3, #0
 129 0038 05D1     		bne	.L23
 130              	.L17:
 131 003a FFF7FEFF 		bl	vPortExitCritical
 132              		@ sp needed
 133 003e 0120     		movs	r0, #1
 134 0040 70BD     		pop	{r4, r5, r6, pc}
 135              	.L22:
 136              		.syntax divided
 137              	@ 251 "Middlewares/Third_Party/FreeRTOS/Source/queue.c" 1
 138 0042 72B6     		 cpsid i 
 139              	@ 0 "" 2
 140              		.thumb
 141              		.syntax unified
 142              	.L14:
 143 0044 FEE7     		b	.L14
 144              	.L23:
 145 0046 2000     		movs	r0, r4
 146 0048 1030     		adds	r0, r0, #16
 147 004a FFF7FEFF 		bl	xTaskRemoveFromEventList
 148 004e 0028     		cmp	r0, #0
 149 0050 F3D0     		beq	.L17
 150 0052 FFF7FEFF 		bl	vPortYield
 151 0056 F0E7     		b	.L17
 152              	.L15:
 153 0058 2000     		movs	r0, r4
 154 005a 1030     		adds	r0, r0, #16
 155 005c FFF7FEFF 		bl	vListInitialise
 156 0060 2000     		movs	r0, r4
 157 0062 2430     		adds	r0, r0, #36
 158 0064 FFF7FEFF 		bl	vListInitialise
 159 0068 E7E7     		b	.L17
 161 006a C046     		.section	.text.xQueueGenericCreateStatic,"ax",%progbits
 162              		.align	1
 163              		.p2align 2,,3
 164              		.global	xQueueGenericCreateStatic
 165              		.syntax unified
 166              		.code	16
 167              		.thumb_func
 168              		.fpu softvfp
 170              	xQueueGenericCreateStatic:
 171              		@ args = 4, pretend = 0, frame = 8
 172              		@ frame_needed = 0, uses_anonymous_args = 0
 173 0000 70B5     		push	{r4, r5, r6, lr}
 174 0002 82B0     		sub	sp, sp, #8
 175 0004 1C00     		movs	r4, r3
 176 0006 06AB     		add	r3, sp, #24
ARM GAS  /tmp/ccryxT4X.s 			page 4


 177 0008 1D78     		ldrb	r5, [r3]
 178 000a 0028     		cmp	r0, #0
 179 000c 01D1     		bne	.L25
 180              		.syntax divided
 181              	@ 306 "Middlewares/Third_Party/FreeRTOS/Source/queue.c" 1
 182 000e 72B6     		 cpsid i 
 183              	@ 0 "" 2
 184              		.thumb
 185              		.syntax unified
 186              	.L26:
 187 0010 FEE7     		b	.L26
 188              	.L25:
 189 0012 002C     		cmp	r4, #0
 190 0014 16D0     		beq	.L41
 191 0016 002A     		cmp	r2, #0
 192 0018 08D0     		beq	.L29
 193 001a 0029     		cmp	r1, #0
 194 001c 14D0     		beq	.L42
 195 001e 5023     		movs	r3, #80
 196 0020 0193     		str	r3, [sp, #4]
 197 0022 019B     		ldr	r3, [sp, #4]
 198 0024 502B     		cmp	r3, #80
 199 0026 11D0     		beq	.L34
 200              	.L37:
 201              		.syntax divided
 202              	@ 323 "Middlewares/Third_Party/FreeRTOS/Source/queue.c" 1
 203 0028 72B6     		 cpsid i 
 204              	@ 0 "" 2
 205              		.thumb
 206              		.syntax unified
 207              	.L35:
 208 002a FEE7     		b	.L35
 209              	.L29:
 210 002c 0029     		cmp	r1, #0
 211 002e 35D1     		bne	.L43
 212 0030 5023     		movs	r3, #80
 213 0032 0193     		str	r3, [sp, #4]
 214 0034 019B     		ldr	r3, [sp, #4]
 215 0036 502B     		cmp	r3, #80
 216 0038 F6D1     		bne	.L37
 217 003a 0122     		movs	r2, #1
 218 003c 4623     		movs	r3, #70
 219 003e E254     		strb	r2, [r4, r3]
 220 0040 2200     		movs	r2, r4
 221 0042 06E0     		b	.L36
 222              	.L41:
 223              		.syntax divided
 224              	@ 310 "Middlewares/Third_Party/FreeRTOS/Source/queue.c" 1
 225 0044 72B6     		 cpsid i 
 226              	@ 0 "" 2
 227              		.thumb
 228              		.syntax unified
 229              	.L28:
 230 0046 FEE7     		b	.L28
 231              	.L42:
 232              		.syntax divided
 233              	@ 314 "Middlewares/Third_Party/FreeRTOS/Source/queue.c" 1
ARM GAS  /tmp/ccryxT4X.s 			page 5


 234 0048 72B6     		 cpsid i 
 235              	@ 0 "" 2
 236              		.thumb
 237              		.syntax unified
 238              	.L31:
 239 004a FEE7     		b	.L31
 240              	.L34:
 241 004c 4623     		movs	r3, #70
 242 004e 0126     		movs	r6, #1
 243 0050 E654     		strb	r6, [r4, r3]
 244              	.L36:
 245 0052 2260     		str	r2, [r4]
 246 0054 E063     		str	r0, [r4, #60]
 247 0056 2164     		str	r1, [r4, #64]
 248 0058 FFF7FEFF 		bl	vPortEnterCritical
 249 005c 216C     		ldr	r1, [r4, #64]
 250 005e E36B     		ldr	r3, [r4, #60]
 251 0060 2268     		ldr	r2, [r4]
 252 0062 4B43     		muls	r3, r1
 253 0064 D018     		adds	r0, r2, r3
 254 0066 6060     		str	r0, [r4, #4]
 255 0068 0020     		movs	r0, #0
 256 006a 5B1A     		subs	r3, r3, r1
 257 006c D318     		adds	r3, r2, r3
 258 006e A260     		str	r2, [r4, #8]
 259 0070 E360     		str	r3, [r4, #12]
 260 0072 4422     		movs	r2, #68
 261 0074 FF23     		movs	r3, #255
 262 0076 A063     		str	r0, [r4, #56]
 263 0078 2000     		movs	r0, r4
 264 007a A354     		strb	r3, [r4, r2]
 265 007c 0132     		adds	r2, r2, #1
 266 007e A354     		strb	r3, [r4, r2]
 267 0080 1030     		adds	r0, r0, #16
 268 0082 FFF7FEFF 		bl	vListInitialise
 269 0086 2000     		movs	r0, r4
 270 0088 2430     		adds	r0, r0, #36
 271 008a FFF7FEFF 		bl	vListInitialise
 272 008e FFF7FEFF 		bl	vPortExitCritical
 273 0092 4C23     		movs	r3, #76
 274 0094 2000     		movs	r0, r4
 275 0096 E554     		strb	r5, [r4, r3]
 276 0098 02B0     		add	sp, sp, #8
 277              		@ sp needed
 278 009a 70BD     		pop	{r4, r5, r6, pc}
 279              	.L43:
 280              		.syntax divided
 281              	@ 315 "Middlewares/Third_Party/FreeRTOS/Source/queue.c" 1
 282 009c 72B6     		 cpsid i 
 283              	@ 0 "" 2
 284              		.thumb
 285              		.syntax unified
 286              	.L33:
 287 009e FEE7     		b	.L33
 289              		.section	.text.xQueueGenericCreate,"ax",%progbits
 290              		.align	1
 291              		.p2align 2,,3
ARM GAS  /tmp/ccryxT4X.s 			page 6


 292              		.global	xQueueGenericCreate
 293              		.syntax unified
 294              		.code	16
 295              		.thumb_func
 296              		.fpu softvfp
 298              	xQueueGenericCreate:
 299              		@ args = 0, pretend = 0, frame = 0
 300              		@ frame_needed = 0, uses_anonymous_args = 0
 301 0000 F8B5     		push	{r3, r4, r5, r6, r7, lr}
 302 0002 0600     		movs	r6, r0
 303 0004 0D00     		movs	r5, r1
 304 0006 1700     		movs	r7, r2
 305 0008 0028     		cmp	r0, #0
 306 000a 01D1     		bne	.L45
 307              		.syntax divided
 308              	@ 364 "Middlewares/Third_Party/FreeRTOS/Source/queue.c" 1
 309 000c 72B6     		 cpsid i 
 310              	@ 0 "" 2
 311              		.thumb
 312              		.syntax unified
 313              	.L46:
 314 000e FEE7     		b	.L46
 315              	.L45:
 316 0010 0029     		cmp	r1, #0
 317 0012 08D1     		bne	.L53
 318 0014 5020     		movs	r0, #80
 319 0016 FFF7FEFF 		bl	pvPortMalloc
 320 001a 041E     		subs	r4, r0, #0
 321 001c 33D0     		beq	.L52
 322 001e 4623     		movs	r3, #70
 323 0020 E554     		strb	r5, [r4, r3]
 324 0022 2460     		str	r4, [r4]
 325 0024 0CE0     		b	.L50
 326              	.L53:
 327 0026 0800     		movs	r0, r1
 328 0028 7043     		muls	r0, r6
 329 002a 5030     		adds	r0, r0, #80
 330 002c FFF7FEFF 		bl	pvPortMalloc
 331 0030 041E     		subs	r4, r0, #0
 332 0032 28D0     		beq	.L52
 333 0034 4623     		movs	r3, #70
 334 0036 0022     		movs	r2, #0
 335 0038 C254     		strb	r2, [r0, r3]
 336 003a 0300     		movs	r3, r0
 337 003c 5033     		adds	r3, r3, #80
 338 003e 0360     		str	r3, [r0]
 339              	.L50:
 340 0040 E663     		str	r6, [r4, #60]
 341 0042 2564     		str	r5, [r4, #64]
 342 0044 FFF7FEFF 		bl	vPortEnterCritical
 343 0048 226C     		ldr	r2, [r4, #64]
 344 004a E36B     		ldr	r3, [r4, #60]
 345 004c 2168     		ldr	r1, [r4]
 346 004e 5343     		muls	r3, r2
 347 0050 C818     		adds	r0, r1, r3
 348 0052 6060     		str	r0, [r4, #4]
 349 0054 0020     		movs	r0, #0
ARM GAS  /tmp/ccryxT4X.s 			page 7


 350 0056 9B1A     		subs	r3, r3, r2
 351 0058 CB18     		adds	r3, r1, r3
 352 005a E360     		str	r3, [r4, #12]
 353 005c 4422     		movs	r2, #68
 354 005e FF23     		movs	r3, #255
 355 0060 A063     		str	r0, [r4, #56]
 356 0062 2000     		movs	r0, r4
 357 0064 A160     		str	r1, [r4, #8]
 358 0066 A354     		strb	r3, [r4, r2]
 359 0068 0132     		adds	r2, r2, #1
 360 006a A354     		strb	r3, [r4, r2]
 361 006c 1030     		adds	r0, r0, #16
 362 006e FFF7FEFF 		bl	vListInitialise
 363 0072 2000     		movs	r0, r4
 364 0074 2430     		adds	r0, r0, #36
 365 0076 FFF7FEFF 		bl	vListInitialise
 366 007a FFF7FEFF 		bl	vPortExitCritical
 367 007e 4C23     		movs	r3, #76
 368 0080 E754     		strb	r7, [r4, r3]
 369              	.L44:
 370 0082 2000     		movs	r0, r4
 371              		@ sp needed
 372 0084 F8BD     		pop	{r3, r4, r5, r6, r7, pc}
 373              	.L52:
 374 0086 0024     		movs	r4, #0
 375 0088 FBE7     		b	.L44
 377 008a C046     		.section	.text.xQueueGetMutexHolder,"ax",%progbits
 378              		.align	1
 379              		.p2align 2,,3
 380              		.global	xQueueGetMutexHolder
 381              		.syntax unified
 382              		.code	16
 383              		.thumb_func
 384              		.fpu softvfp
 386              	xQueueGetMutexHolder:
 387              		@ args = 0, pretend = 0, frame = 0
 388              		@ frame_needed = 0, uses_anonymous_args = 0
 389 0000 70B5     		push	{r4, r5, r6, lr}
 390 0002 0400     		movs	r4, r0
 391 0004 FFF7FEFF 		bl	vPortEnterCritical
 392 0008 2368     		ldr	r3, [r4]
 393 000a 0025     		movs	r5, #0
 394 000c 002B     		cmp	r3, #0
 395 000e 00D1     		bne	.L55
 396 0010 6568     		ldr	r5, [r4, #4]
 397              	.L55:
 398 0012 FFF7FEFF 		bl	vPortExitCritical
 399              		@ sp needed
 400 0016 2800     		movs	r0, r5
 401 0018 70BD     		pop	{r4, r5, r6, pc}
 403 001a C046     		.section	.text.xQueueGetMutexHolderFromISR,"ax",%progbits
 404              		.align	1
 405              		.p2align 2,,3
 406              		.global	xQueueGetMutexHolderFromISR
 407              		.syntax unified
 408              		.code	16
 409              		.thumb_func
ARM GAS  /tmp/ccryxT4X.s 			page 8


 410              		.fpu softvfp
 412              	xQueueGetMutexHolderFromISR:
 413              		@ args = 0, pretend = 0, frame = 0
 414              		@ frame_needed = 0, uses_anonymous_args = 0
 415              		@ link register save eliminated.
 416 0000 031E     		subs	r3, r0, #0
 417 0002 05D0     		beq	.L62
 418 0004 1A68     		ldr	r2, [r3]
 419 0006 0020     		movs	r0, #0
 420 0008 002A     		cmp	r2, #0
 421 000a 00D1     		bne	.L57
 422 000c 5868     		ldr	r0, [r3, #4]
 423              	.L57:
 424              		@ sp needed
 425 000e 7047     		bx	lr
 426              	.L62:
 427              		.syntax divided
 428              	@ 552 "Middlewares/Third_Party/FreeRTOS/Source/queue.c" 1
 429 0010 72B6     		 cpsid i 
 430              	@ 0 "" 2
 431              		.thumb
 432              		.syntax unified
 433              	.L59:
 434 0012 FEE7     		b	.L59
 436              		.section	.text.xQueueCreateCountingSemaphoreStatic,"ax",%progbits
 437              		.align	1
 438              		.p2align 2,,3
 439              		.global	xQueueCreateCountingSemaphoreStatic
 440              		.syntax unified
 441              		.code	16
 442              		.thumb_func
 443              		.fpu softvfp
 445              	xQueueCreateCountingSemaphoreStatic:
 446              		@ args = 0, pretend = 0, frame = 8
 447              		@ frame_needed = 0, uses_anonymous_args = 0
 448 0000 70B5     		push	{r4, r5, r6, lr}
 449 0002 0D00     		movs	r5, r1
 450 0004 1400     		movs	r4, r2
 451 0006 82B0     		sub	sp, sp, #8
 452 0008 0028     		cmp	r0, #0
 453 000a 01D1     		bne	.L64
 454              		.syntax divided
 455              	@ 675 "Middlewares/Third_Party/FreeRTOS/Source/queue.c" 1
 456 000c 72B6     		 cpsid i 
 457              	@ 0 "" 2
 458              		.thumb
 459              		.syntax unified
 460              	.L65:
 461 000e FEE7     		b	.L65
 462              	.L64:
 463 0010 8842     		cmp	r0, r1
 464 0012 01D2     		bcs	.L66
 465              		.syntax divided
 466              	@ 676 "Middlewares/Third_Party/FreeRTOS/Source/queue.c" 1
 467 0014 72B6     		 cpsid i 
 468              	@ 0 "" 2
 469              		.thumb
ARM GAS  /tmp/ccryxT4X.s 			page 9


 470              		.syntax unified
 471              	.L67:
 472 0016 FEE7     		b	.L67
 473              	.L66:
 474 0018 002A     		cmp	r2, #0
 475 001a 06D0     		beq	.L72
 476 001c 5023     		movs	r3, #80
 477 001e 0193     		str	r3, [sp, #4]
 478 0020 019B     		ldr	r3, [sp, #4]
 479 0022 502B     		cmp	r3, #80
 480 0024 03D0     		beq	.L70
 481              		.syntax divided
 482              	@ 323 "Middlewares/Third_Party/FreeRTOS/Source/queue.c" 1
 483 0026 72B6     		 cpsid i 
 484              	@ 0 "" 2
 485              		.thumb
 486              		.syntax unified
 487              	.L71:
 488 0028 FEE7     		b	.L71
 489              	.L72:
 490              		.syntax divided
 491              	@ 310 "Middlewares/Third_Party/FreeRTOS/Source/queue.c" 1
 492 002a 72B6     		 cpsid i 
 493              	@ 0 "" 2
 494              		.thumb
 495              		.syntax unified
 496              	.L69:
 497 002c FEE7     		b	.L69
 498              	.L70:
 499 002e 4623     		movs	r3, #70
 500 0030 0122     		movs	r2, #1
 501 0032 0026     		movs	r6, #0
 502 0034 E254     		strb	r2, [r4, r3]
 503 0036 E063     		str	r0, [r4, #60]
 504 0038 2460     		str	r4, [r4]
 505 003a 2664     		str	r6, [r4, #64]
 506 003c FFF7FEFF 		bl	vPortEnterCritical
 507 0040 216C     		ldr	r1, [r4, #64]
 508 0042 E36B     		ldr	r3, [r4, #60]
 509 0044 2268     		ldr	r2, [r4]
 510 0046 4B43     		muls	r3, r1
 511 0048 D018     		adds	r0, r2, r3
 512 004a 5B1A     		subs	r3, r3, r1
 513 004c D318     		adds	r3, r2, r3
 514 004e A260     		str	r2, [r4, #8]
 515 0050 E360     		str	r3, [r4, #12]
 516 0052 4422     		movs	r2, #68
 517 0054 FF23     		movs	r3, #255
 518 0056 6060     		str	r0, [r4, #4]
 519 0058 2000     		movs	r0, r4
 520 005a A663     		str	r6, [r4, #56]
 521 005c A354     		strb	r3, [r4, r2]
 522 005e 0132     		adds	r2, r2, #1
 523 0060 A354     		strb	r3, [r4, r2]
 524 0062 1030     		adds	r0, r0, #16
 525 0064 FFF7FEFF 		bl	vListInitialise
 526 0068 2000     		movs	r0, r4
ARM GAS  /tmp/ccryxT4X.s 			page 10


 527 006a 2430     		adds	r0, r0, #36
 528 006c FFF7FEFF 		bl	vListInitialise
 529 0070 FFF7FEFF 		bl	vPortExitCritical
 530 0074 4C23     		movs	r3, #76
 531 0076 0222     		movs	r2, #2
 532 0078 2000     		movs	r0, r4
 533 007a E254     		strb	r2, [r4, r3]
 534 007c A563     		str	r5, [r4, #56]
 535 007e 02B0     		add	sp, sp, #8
 536              		@ sp needed
 537 0080 70BD     		pop	{r4, r5, r6, pc}
 539 0082 C046     		.section	.text.xQueueCreateCountingSemaphore,"ax",%progbits
 540              		.align	1
 541              		.p2align 2,,3
 542              		.global	xQueueCreateCountingSemaphore
 543              		.syntax unified
 544              		.code	16
 545              		.thumb_func
 546              		.fpu softvfp
 548              	xQueueCreateCountingSemaphore:
 549              		@ args = 0, pretend = 0, frame = 0
 550              		@ frame_needed = 0, uses_anonymous_args = 0
 551 0000 F8B5     		push	{r3, r4, r5, r6, r7, lr}
 552 0002 0500     		movs	r5, r0
 553 0004 0E00     		movs	r6, r1
 554 0006 0028     		cmp	r0, #0
 555 0008 01D1     		bne	.L74
 556              		.syntax divided
 557              	@ 703 "Middlewares/Third_Party/FreeRTOS/Source/queue.c" 1
 558 000a 72B6     		 cpsid i 
 559              	@ 0 "" 2
 560              		.thumb
 561              		.syntax unified
 562              	.L75:
 563 000c FEE7     		b	.L75
 564              	.L74:
 565 000e 8842     		cmp	r0, r1
 566 0010 01D2     		bcs	.L76
 567              		.syntax divided
 568              	@ 704 "Middlewares/Third_Party/FreeRTOS/Source/queue.c" 1
 569 0012 72B6     		 cpsid i 
 570              	@ 0 "" 2
 571              		.thumb
 572              		.syntax unified
 573              	.L77:
 574 0014 FEE7     		b	.L77
 575              	.L76:
 576 0016 5020     		movs	r0, #80
 577 0018 FFF7FEFF 		bl	pvPortMalloc
 578 001c 041E     		subs	r4, r0, #0
 579 001e 25D0     		beq	.L73
 580 0020 0027     		movs	r7, #0
 581 0022 4623     		movs	r3, #70
 582 0024 C754     		strb	r7, [r0, r3]
 583 0026 0060     		str	r0, [r0]
 584 0028 C563     		str	r5, [r0, #60]
 585 002a 0764     		str	r7, [r0, #64]
ARM GAS  /tmp/ccryxT4X.s 			page 11


 586 002c FFF7FEFF 		bl	vPortEnterCritical
 587 0030 216C     		ldr	r1, [r4, #64]
 588 0032 E36B     		ldr	r3, [r4, #60]
 589 0034 2268     		ldr	r2, [r4]
 590 0036 4B43     		muls	r3, r1
 591 0038 D018     		adds	r0, r2, r3
 592 003a 5B1A     		subs	r3, r3, r1
 593 003c D318     		adds	r3, r2, r3
 594 003e A260     		str	r2, [r4, #8]
 595 0040 E360     		str	r3, [r4, #12]
 596 0042 4422     		movs	r2, #68
 597 0044 FF23     		movs	r3, #255
 598 0046 6060     		str	r0, [r4, #4]
 599 0048 2000     		movs	r0, r4
 600 004a A763     		str	r7, [r4, #56]
 601 004c A354     		strb	r3, [r4, r2]
 602 004e 0132     		adds	r2, r2, #1
 603 0050 A354     		strb	r3, [r4, r2]
 604 0052 1030     		adds	r0, r0, #16
 605 0054 FFF7FEFF 		bl	vListInitialise
 606 0058 2000     		movs	r0, r4
 607 005a 2430     		adds	r0, r0, #36
 608 005c FFF7FEFF 		bl	vListInitialise
 609 0060 FFF7FEFF 		bl	vPortExitCritical
 610 0064 4C23     		movs	r3, #76
 611 0066 0222     		movs	r2, #2
 612 0068 E254     		strb	r2, [r4, r3]
 613 006a A663     		str	r6, [r4, #56]
 614              	.L73:
 615 006c 2000     		movs	r0, r4
 616              		@ sp needed
 617 006e F8BD     		pop	{r3, r4, r5, r6, r7, pc}
 619              		.section	.text.xQueueGenericSend,"ax",%progbits
 620              		.align	1
 621              		.p2align 2,,3
 622              		.global	xQueueGenericSend
 623              		.syntax unified
 624              		.code	16
 625              		.thumb_func
 626              		.fpu softvfp
 628              	xQueueGenericSend:
 629              		@ args = 0, pretend = 0, frame = 16
 630              		@ frame_needed = 0, uses_anonymous_args = 0
 631 0000 F0B5     		push	{r4, r5, r6, r7, lr}
 632 0002 4746     		mov	r7, r8
 633 0004 CE46     		mov	lr, r9
 634 0006 80B5     		push	{r7, lr}
 635 0008 85B0     		sub	sp, sp, #20
 636 000a 0400     		movs	r4, r0
 637 000c 8846     		mov	r8, r1
 638 000e 1F00     		movs	r7, r3
 639 0010 0192     		str	r2, [sp, #4]
 640 0012 0028     		cmp	r0, #0
 641 0014 00D1     		bne	.LCB622
 642 0016 96E0     		b	.L178	@long jump
 643              	.LCB622:
 644 0018 0029     		cmp	r1, #0
ARM GAS  /tmp/ccryxT4X.s 			page 12


 645 001a 00D1     		bne	.LCB624
 646 001c 8DE0     		b	.L179	@long jump
 647              	.LCB624:
 648              	.L85:
 649 001e 022F     		cmp	r7, #2
 650 0020 04D1     		bne	.L87
 651 0022 E36B     		ldr	r3, [r4, #60]
 652 0024 012B     		cmp	r3, #1
 653 0026 01D0     		beq	.L87
 654              		.syntax divided
 655              	@ 733 "Middlewares/Third_Party/FreeRTOS/Source/queue.c" 1
 656 0028 72B6     		 cpsid i 
 657              	@ 0 "" 2
 658              		.thumb
 659              		.syntax unified
 660              	.L88:
 661 002a FEE7     		b	.L88
 662              	.L87:
 663 002c FFF7FEFF 		bl	xTaskGetSchedulerState
 664 0030 051E     		subs	r5, r0, #0
 665 0032 00D1     		bne	.LCB642
 666 0034 89E0     		b	.L180	@long jump
 667              	.LCB642:
 668 0036 0025     		movs	r5, #0
 669              	.L89:
 670 0038 2600     		movs	r6, r4
 671 003a 2436     		adds	r6, r6, #36
 672              	.L91:
 673 003c FFF7FEFF 		bl	vPortEnterCritical
 674 0040 A36B     		ldr	r3, [r4, #56]
 675 0042 E26B     		ldr	r2, [r4, #60]
 676 0044 9342     		cmp	r3, r2
 677 0046 00D2     		bcs	.LCB656
 678 0048 DCE0     		b	.L92	@long jump
 679              	.LCB656:
 680 004a 022F     		cmp	r7, #2
 681 004c 00D1     		bne	.LCB658
 682 004e D9E0     		b	.L92	@long jump
 683              	.LCB658:
 684 0050 019B     		ldr	r3, [sp, #4]
 685 0052 002B     		cmp	r3, #0
 686 0054 00D1     		bne	.LCB662
 687 0056 31E1     		b	.L181	@long jump
 688              	.LCB662:
 689 0058 002D     		cmp	r5, #0
 690 005a 00D1     		bne	.LCB664
 691 005c CEE0     		b	.L182	@long jump
 692              	.LCB664:
 693              	.L100:
 694 005e FFF7FEFF 		bl	vPortExitCritical
 695 0062 FFF7FEFF 		bl	vTaskSuspendAll
 696 0066 FFF7FEFF 		bl	vPortEnterCritical
 697 006a 4422     		movs	r2, #68
 698 006c A35C     		ldrb	r3, [r4, r2]
 699 006e 5BB2     		sxtb	r3, r3
 700 0070 0133     		adds	r3, r3, #1
 701 0072 01D1     		bne	.L101
ARM GAS  /tmp/ccryxT4X.s 			page 13


 702 0074 0023     		movs	r3, #0
 703 0076 A354     		strb	r3, [r4, r2]
 704              	.L101:
 705 0078 4522     		movs	r2, #69
 706 007a A35C     		ldrb	r3, [r4, r2]
 707 007c 5BB2     		sxtb	r3, r3
 708 007e 0133     		adds	r3, r3, #1
 709 0080 01D1     		bne	.L102
 710 0082 0023     		movs	r3, #0
 711 0084 A354     		strb	r3, [r4, r2]
 712              	.L102:
 713 0086 FFF7FEFF 		bl	vPortExitCritical
 714 008a 01A9     		add	r1, sp, #4
 715 008c 02A8     		add	r0, sp, #8
 716 008e FFF7FEFF 		bl	xTaskCheckForTimeOut
 717 0092 0028     		cmp	r0, #0
 718 0094 00D0     		beq	.LCB693
 719 0096 CFE0     		b	.L103	@long jump
 720              	.LCB693:
 721 0098 FFF7FEFF 		bl	vPortEnterCritical
 722 009c A36B     		ldr	r3, [r4, #56]
 723 009e E26B     		ldr	r2, [r4, #60]
 724 00a0 9342     		cmp	r3, r2
 725 00a2 58D0     		beq	.L104
 726 00a4 FFF7FEFF 		bl	vPortExitCritical
 727 00a8 FFF7FEFF 		bl	vPortEnterCritical
 728 00ac 4523     		movs	r3, #69
 729 00ae E55C     		ldrb	r5, [r4, r3]
 730 00b0 6DB2     		sxtb	r5, r5
 731 00b2 002D     		cmp	r5, #0
 732 00b4 05DC     		bgt	.L107
 733 00b6 13E0     		b	.L105
 734              	.L106:
 735 00b8 013D     		subs	r5, r5, #1
 736 00ba EBB2     		uxtb	r3, r5
 737 00bc 6DB2     		sxtb	r5, r5
 738 00be 002B     		cmp	r3, #0
 739 00c0 0ED0     		beq	.L105
 740              	.L107:
 741 00c2 636A     		ldr	r3, [r4, #36]
 742 00c4 002B     		cmp	r3, #0
 743 00c6 0BD0     		beq	.L105
 744 00c8 3000     		movs	r0, r6
 745 00ca FFF7FEFF 		bl	xTaskRemoveFromEventList
 746 00ce 0028     		cmp	r0, #0
 747 00d0 F2D0     		beq	.L106
 748 00d2 013D     		subs	r5, r5, #1
 749 00d4 FFF7FEFF 		bl	vTaskMissedYield
 750 00d8 EBB2     		uxtb	r3, r5
 751 00da 6DB2     		sxtb	r5, r5
 752 00dc 002B     		cmp	r3, #0
 753 00de F0D1     		bne	.L107
 754              	.L105:
 755 00e0 4523     		movs	r3, #69
 756 00e2 FF22     		movs	r2, #255
 757 00e4 E254     		strb	r2, [r4, r3]
 758 00e6 FFF7FEFF 		bl	vPortExitCritical
ARM GAS  /tmp/ccryxT4X.s 			page 14


 759 00ea FFF7FEFF 		bl	vPortEnterCritical
 760 00ee 4423     		movs	r3, #68
 761 00f0 E55C     		ldrb	r5, [r4, r3]
 762 00f2 6DB2     		sxtb	r5, r5
 763 00f4 002D     		cmp	r5, #0
 764 00f6 17DD     		ble	.L108
 765 00f8 343B     		subs	r3, r3, #52
 766 00fa 9946     		mov	r9, r3
 767 00fc A144     		add	r9, r9, r4
 768 00fe 04E0     		b	.L110
 769              	.L109:
 770 0100 013D     		subs	r5, r5, #1
 771 0102 EAB2     		uxtb	r2, r5
 772 0104 6DB2     		sxtb	r5, r5
 773 0106 002A     		cmp	r2, #0
 774 0108 0ED0     		beq	.L108
 775              	.L110:
 776 010a 2369     		ldr	r3, [r4, #16]
 777 010c 002B     		cmp	r3, #0
 778 010e 0BD0     		beq	.L108
 779 0110 4846     		mov	r0, r9
 780 0112 FFF7FEFF 		bl	xTaskRemoveFromEventList
 781 0116 0028     		cmp	r0, #0
 782 0118 F2D0     		beq	.L109
 783 011a 013D     		subs	r5, r5, #1
 784 011c FFF7FEFF 		bl	vTaskMissedYield
 785 0120 EAB2     		uxtb	r2, r5
 786 0122 6DB2     		sxtb	r5, r5
 787 0124 002A     		cmp	r2, #0
 788 0126 F0D1     		bne	.L110
 789              	.L108:
 790 0128 4423     		movs	r3, #68
 791 012a FF22     		movs	r2, #255
 792 012c E254     		strb	r2, [r4, r3]
 793 012e FFF7FEFF 		bl	vPortExitCritical
 794 0132 FFF7FEFF 		bl	xTaskResumeAll
 795              	.L111:
 796 0136 0125     		movs	r5, #1
 797 0138 80E7     		b	.L91
 798              	.L179:
 799 013a 036C     		ldr	r3, [r0, #64]
 800 013c 002B     		cmp	r3, #0
 801 013e 00D1     		bne	.LCB785
 802 0140 6DE7     		b	.L85	@long jump
 803              	.LCB785:
 804              		.syntax divided
 805              	@ 732 "Middlewares/Third_Party/FreeRTOS/Source/queue.c" 1
 806 0142 72B6     		 cpsid i 
 807              	@ 0 "" 2
 808              		.thumb
 809              		.syntax unified
 810              	.L86:
 811 0144 FEE7     		b	.L86
 812              	.L178:
 813              		.syntax divided
 814              	@ 731 "Middlewares/Third_Party/FreeRTOS/Source/queue.c" 1
 815 0146 72B6     		 cpsid i 
ARM GAS  /tmp/ccryxT4X.s 			page 15


 816              	@ 0 "" 2
 817              		.thumb
 818              		.syntax unified
 819              	.L84:
 820 0148 FEE7     		b	.L84
 821              	.L180:
 822 014a 019B     		ldr	r3, [sp, #4]
 823 014c 002B     		cmp	r3, #0
 824 014e 00D1     		bne	.LCB803
 825 0150 72E7     		b	.L89	@long jump
 826              	.LCB803:
 827              		.syntax divided
 828              	@ 736 "Middlewares/Third_Party/FreeRTOS/Source/queue.c" 1
 829 0152 72B6     		 cpsid i 
 830              	@ 0 "" 2
 831              		.thumb
 832              		.syntax unified
 833              	.L90:
 834 0154 FEE7     		b	.L90
 835              	.L104:
 836 0156 FFF7FEFF 		bl	vPortExitCritical
 837 015a 1023     		movs	r3, #16
 838 015c 9946     		mov	r9, r3
 839 015e A144     		add	r9, r9, r4
 840 0160 4846     		mov	r0, r9
 841 0162 0199     		ldr	r1, [sp, #4]
 842 0164 FFF7FEFF 		bl	vTaskPlaceOnEventList
 843 0168 FFF7FEFF 		bl	vPortEnterCritical
 844 016c 4523     		movs	r3, #69
 845 016e E55C     		ldrb	r5, [r4, r3]
 846 0170 6DB2     		sxtb	r5, r5
 847 0172 002D     		cmp	r5, #0
 848 0174 05DC     		bgt	.L114
 849 0176 13E0     		b	.L112
 850              	.L113:
 851 0178 013D     		subs	r5, r5, #1
 852 017a EBB2     		uxtb	r3, r5
 853 017c 6DB2     		sxtb	r5, r5
 854 017e 002B     		cmp	r3, #0
 855 0180 0ED0     		beq	.L112
 856              	.L114:
 857 0182 636A     		ldr	r3, [r4, #36]
 858 0184 002B     		cmp	r3, #0
 859 0186 0BD0     		beq	.L112
 860 0188 3000     		movs	r0, r6
 861 018a FFF7FEFF 		bl	xTaskRemoveFromEventList
 862 018e 0028     		cmp	r0, #0
 863 0190 F2D0     		beq	.L113
 864 0192 013D     		subs	r5, r5, #1
 865 0194 FFF7FEFF 		bl	vTaskMissedYield
 866 0198 EBB2     		uxtb	r3, r5
 867 019a 6DB2     		sxtb	r5, r5
 868 019c 002B     		cmp	r3, #0
 869 019e F0D1     		bne	.L114
 870              	.L112:
 871 01a0 4523     		movs	r3, #69
 872 01a2 FF22     		movs	r2, #255
ARM GAS  /tmp/ccryxT4X.s 			page 16


 873 01a4 E254     		strb	r2, [r4, r3]
 874 01a6 FFF7FEFF 		bl	vPortExitCritical
 875 01aa FFF7FEFF 		bl	vPortEnterCritical
 876 01ae 4423     		movs	r3, #68
 877 01b0 E55C     		ldrb	r5, [r4, r3]
 878 01b2 6DB2     		sxtb	r5, r5
 879 01b4 002D     		cmp	r5, #0
 880 01b6 05DC     		bgt	.L117
 881 01b8 13E0     		b	.L115
 882              	.L116:
 883 01ba 013D     		subs	r5, r5, #1
 884 01bc EBB2     		uxtb	r3, r5
 885 01be 6DB2     		sxtb	r5, r5
 886 01c0 002B     		cmp	r3, #0
 887 01c2 0ED0     		beq	.L115
 888              	.L117:
 889 01c4 2369     		ldr	r3, [r4, #16]
 890 01c6 002B     		cmp	r3, #0
 891 01c8 0BD0     		beq	.L115
 892 01ca 4846     		mov	r0, r9
 893 01cc FFF7FEFF 		bl	xTaskRemoveFromEventList
 894 01d0 0028     		cmp	r0, #0
 895 01d2 F2D0     		beq	.L116
 896 01d4 013D     		subs	r5, r5, #1
 897 01d6 FFF7FEFF 		bl	vTaskMissedYield
 898 01da EBB2     		uxtb	r3, r5
 899 01dc 6DB2     		sxtb	r5, r5
 900 01de 002B     		cmp	r3, #0
 901 01e0 F0D1     		bne	.L117
 902              	.L115:
 903 01e2 4423     		movs	r3, #68
 904 01e4 FF22     		movs	r2, #255
 905 01e6 E254     		strb	r2, [r4, r3]
 906 01e8 FFF7FEFF 		bl	vPortExitCritical
 907 01ec FFF7FEFF 		bl	xTaskResumeAll
 908 01f0 0028     		cmp	r0, #0
 909 01f2 A0D1     		bne	.L111
 910 01f4 FFF7FEFF 		bl	vPortYield
 911 01f8 0125     		movs	r5, #1
 912 01fa 1FE7     		b	.L91
 913              	.L182:
 914 01fc 02A8     		add	r0, sp, #8
 915 01fe FFF7FEFF 		bl	vTaskInternalSetTimeOutState
 916 0202 2CE7     		b	.L100
 917              	.L92:
 918 0204 3A00     		movs	r2, r7
 919 0206 4146     		mov	r1, r8
 920 0208 2000     		movs	r0, r4
 921 020a FFF7FEFF 		bl	prvCopyDataToQueue
 922 020e 636A     		ldr	r3, [r4, #36]
 923 0210 002B     		cmp	r3, #0
 924 0212 0CD1     		bne	.L183
 925              	.L177:
 926 0214 0028     		cmp	r0, #0
 927 0216 07D1     		bne	.L184
 928              	.L96:
 929 0218 FFF7FEFF 		bl	vPortExitCritical
ARM GAS  /tmp/ccryxT4X.s 			page 17


 930 021c 0120     		movs	r0, #1
 931              	.L82:
 932 021e 05B0     		add	sp, sp, #20
 933              		@ sp needed
 934 0220 0CBC     		pop	{r2, r3}
 935 0222 9046     		mov	r8, r2
 936 0224 9946     		mov	r9, r3
 937 0226 F0BD     		pop	{r4, r5, r6, r7, pc}
 938              	.L184:
 939 0228 FFF7FEFF 		bl	vPortYield
 940 022c F4E7     		b	.L96
 941              	.L183:
 942 022e 2000     		movs	r0, r4
 943 0230 2430     		adds	r0, r0, #36
 944 0232 FFF7FEFF 		bl	xTaskRemoveFromEventList
 945 0236 EDE7     		b	.L177
 946              	.L103:
 947 0238 FFF7FEFF 		bl	vPortEnterCritical
 948 023c 4523     		movs	r3, #69
 949 023e E55C     		ldrb	r5, [r4, r3]
 950 0240 6DB2     		sxtb	r5, r5
 951 0242 002D     		cmp	r5, #0
 952 0244 12DD     		ble	.L118
 953 0246 2600     		movs	r6, r4
 954 0248 2436     		adds	r6, r6, #36
 955 024a 04E0     		b	.L120
 956              	.L119:
 957 024c 013D     		subs	r5, r5, #1
 958 024e EBB2     		uxtb	r3, r5
 959 0250 6DB2     		sxtb	r5, r5
 960 0252 002B     		cmp	r3, #0
 961 0254 0AD0     		beq	.L118
 962              	.L120:
 963 0256 636A     		ldr	r3, [r4, #36]
 964 0258 002B     		cmp	r3, #0
 965 025a 07D0     		beq	.L118
 966 025c 3000     		movs	r0, r6
 967 025e FFF7FEFF 		bl	xTaskRemoveFromEventList
 968 0262 0028     		cmp	r0, #0
 969 0264 F2D0     		beq	.L119
 970 0266 FFF7FEFF 		bl	vTaskMissedYield
 971 026a EFE7     		b	.L119
 972              	.L118:
 973 026c 4523     		movs	r3, #69
 974 026e FF22     		movs	r2, #255
 975 0270 E254     		strb	r2, [r4, r3]
 976 0272 FFF7FEFF 		bl	vPortExitCritical
 977 0276 FFF7FEFF 		bl	vPortEnterCritical
 978 027a 4423     		movs	r3, #68
 979 027c E55C     		ldrb	r5, [r4, r3]
 980 027e 6DB2     		sxtb	r5, r5
 981 0280 002D     		cmp	r5, #0
 982 0282 12DD     		ble	.L121
 983 0284 2600     		movs	r6, r4
 984 0286 1036     		adds	r6, r6, #16
 985 0288 04E0     		b	.L123
 986              	.L122:
ARM GAS  /tmp/ccryxT4X.s 			page 18


 987 028a 013D     		subs	r5, r5, #1
 988 028c EBB2     		uxtb	r3, r5
 989 028e 6DB2     		sxtb	r5, r5
 990 0290 002B     		cmp	r3, #0
 991 0292 0AD0     		beq	.L121
 992              	.L123:
 993 0294 2369     		ldr	r3, [r4, #16]
 994 0296 002B     		cmp	r3, #0
 995 0298 07D0     		beq	.L121
 996 029a 3000     		movs	r0, r6
 997 029c FFF7FEFF 		bl	xTaskRemoveFromEventList
 998 02a0 0028     		cmp	r0, #0
 999 02a2 F2D0     		beq	.L122
 1000 02a4 FFF7FEFF 		bl	vTaskMissedYield
 1001 02a8 EFE7     		b	.L122
 1002              	.L121:
 1003 02aa 4423     		movs	r3, #68
 1004 02ac FF22     		movs	r2, #255
 1005 02ae E254     		strb	r2, [r4, r3]
 1006 02b0 FFF7FEFF 		bl	vPortExitCritical
 1007 02b4 FFF7FEFF 		bl	xTaskResumeAll
 1008 02b8 0020     		movs	r0, #0
 1009 02ba B0E7     		b	.L82
 1010              	.L181:
 1011 02bc FFF7FEFF 		bl	vPortExitCritical
 1012 02c0 0020     		movs	r0, #0
 1013 02c2 ACE7     		b	.L82
 1015              		.section	.text.xQueueCreateMutexStatic,"ax",%progbits
 1016              		.align	1
 1017              		.p2align 2,,3
 1018              		.global	xQueueCreateMutexStatic
 1019              		.syntax unified
 1020              		.code	16
 1021              		.thumb_func
 1022              		.fpu softvfp
 1024              	xQueueCreateMutexStatic:
 1025              		@ args = 0, pretend = 0, frame = 8
 1026              		@ frame_needed = 0, uses_anonymous_args = 0
 1027 0000 70B5     		push	{r4, r5, r6, lr}
 1028 0002 0500     		movs	r5, r0
 1029 0004 0C00     		movs	r4, r1
 1030 0006 82B0     		sub	sp, sp, #8
 1031 0008 0029     		cmp	r1, #0
 1032 000a 37D0     		beq	.L190
 1033 000c 5023     		movs	r3, #80
 1034 000e 0193     		str	r3, [sp, #4]
 1035 0010 019B     		ldr	r3, [sp, #4]
 1036 0012 502B     		cmp	r3, #80
 1037 0014 01D0     		beq	.L188
 1038              		.syntax divided
 1039              	@ 323 "Middlewares/Third_Party/FreeRTOS/Source/queue.c" 1
 1040 0016 72B6     		 cpsid i 
 1041              	@ 0 "" 2
 1042              		.thumb
 1043              		.syntax unified
 1044              	.L189:
 1045 0018 FEE7     		b	.L189
ARM GAS  /tmp/ccryxT4X.s 			page 19


 1046              	.L188:
 1047 001a 0026     		movs	r6, #0
 1048 001c 0123     		movs	r3, #1
 1049 001e 4622     		movs	r2, #70
 1050 0020 8B54     		strb	r3, [r1, r2]
 1051 0022 2160     		str	r1, [r4]
 1052 0024 CB63     		str	r3, [r1, #60]
 1053 0026 0E64     		str	r6, [r1, #64]
 1054 0028 FFF7FEFF 		bl	vPortEnterCritical
 1055 002c 216C     		ldr	r1, [r4, #64]
 1056 002e E36B     		ldr	r3, [r4, #60]
 1057 0030 2268     		ldr	r2, [r4]
 1058 0032 4B43     		muls	r3, r1
 1059 0034 D018     		adds	r0, r2, r3
 1060 0036 5B1A     		subs	r3, r3, r1
 1061 0038 D318     		adds	r3, r2, r3
 1062 003a A260     		str	r2, [r4, #8]
 1063 003c E360     		str	r3, [r4, #12]
 1064 003e 4422     		movs	r2, #68
 1065 0040 FF23     		movs	r3, #255
 1066 0042 6060     		str	r0, [r4, #4]
 1067 0044 2000     		movs	r0, r4
 1068 0046 A663     		str	r6, [r4, #56]
 1069 0048 A354     		strb	r3, [r4, r2]
 1070 004a 0132     		adds	r2, r2, #1
 1071 004c A354     		strb	r3, [r4, r2]
 1072 004e 1030     		adds	r0, r0, #16
 1073 0050 FFF7FEFF 		bl	vListInitialise
 1074 0054 2000     		movs	r0, r4
 1075 0056 2430     		adds	r0, r0, #36
 1076 0058 FFF7FEFF 		bl	vListInitialise
 1077 005c FFF7FEFF 		bl	vPortExitCritical
 1078 0060 4C23     		movs	r3, #76
 1079 0062 0022     		movs	r2, #0
 1080 0064 E554     		strb	r5, [r4, r3]
 1081 0066 0021     		movs	r1, #0
 1082 0068 0023     		movs	r3, #0
 1083 006a 2000     		movs	r0, r4
 1084 006c 6660     		str	r6, [r4, #4]
 1085 006e 2660     		str	r6, [r4]
 1086 0070 E660     		str	r6, [r4, #12]
 1087 0072 FFF7FEFF 		bl	xQueueGenericSend
 1088 0076 2000     		movs	r0, r4
 1089 0078 02B0     		add	sp, sp, #8
 1090              		@ sp needed
 1091 007a 70BD     		pop	{r4, r5, r6, pc}
 1092              	.L190:
 1093              		.syntax divided
 1094              	@ 310 "Middlewares/Third_Party/FreeRTOS/Source/queue.c" 1
 1095 007c 72B6     		 cpsid i 
 1096              	@ 0 "" 2
 1097              		.thumb
 1098              		.syntax unified
 1099              	.L187:
 1100 007e FEE7     		b	.L187
 1102              		.section	.text.xQueueGiveMutexRecursive,"ax",%progbits
 1103              		.align	1
ARM GAS  /tmp/ccryxT4X.s 			page 20


 1104              		.p2align 2,,3
 1105              		.global	xQueueGiveMutexRecursive
 1106              		.syntax unified
 1107              		.code	16
 1108              		.thumb_func
 1109              		.fpu softvfp
 1111              	xQueueGiveMutexRecursive:
 1112              		@ args = 0, pretend = 0, frame = 0
 1113              		@ frame_needed = 0, uses_anonymous_args = 0
 1114 0000 70B5     		push	{r4, r5, r6, lr}
 1115 0002 041E     		subs	r4, r0, #0
 1116 0004 07D0     		beq	.L197
 1117 0006 4668     		ldr	r6, [r0, #4]
 1118 0008 FFF7FEFF 		bl	xTaskGetCurrentTaskHandle
 1119 000c 0025     		movs	r5, #0
 1120 000e 8642     		cmp	r6, r0
 1121 0010 03D0     		beq	.L198
 1122              	.L191:
 1123 0012 2800     		movs	r0, r5
 1124              		@ sp needed
 1125 0014 70BD     		pop	{r4, r5, r6, pc}
 1126              	.L197:
 1127              		.syntax divided
 1128              	@ 579 "Middlewares/Third_Party/FreeRTOS/Source/queue.c" 1
 1129 0016 72B6     		 cpsid i 
 1130              	@ 0 "" 2
 1131              		.thumb
 1132              		.syntax unified
 1133              	.L193:
 1134 0018 FEE7     		b	.L193
 1135              	.L198:
 1136 001a E368     		ldr	r3, [r4, #12]
 1137 001c 0135     		adds	r5, r5, #1
 1138 001e 013B     		subs	r3, r3, #1
 1139 0020 E360     		str	r3, [r4, #12]
 1140 0022 002B     		cmp	r3, #0
 1141 0024 F5D1     		bne	.L191
 1142 0026 0022     		movs	r2, #0
 1143 0028 0021     		movs	r1, #0
 1144 002a 2000     		movs	r0, r4
 1145 002c FFF7FEFF 		bl	xQueueGenericSend
 1146 0030 EFE7     		b	.L191
 1148 0032 C046     		.section	.text.xQueueCreateMutex,"ax",%progbits
 1149              		.align	1
 1150              		.p2align 2,,3
 1151              		.global	xQueueCreateMutex
 1152              		.syntax unified
 1153              		.code	16
 1154              		.thumb_func
 1155              		.fpu softvfp
 1157              	xQueueCreateMutex:
 1158              		@ args = 0, pretend = 0, frame = 0
 1159              		@ frame_needed = 0, uses_anonymous_args = 0
 1160 0000 70B5     		push	{r4, r5, r6, lr}
 1161 0002 0600     		movs	r6, r0
 1162 0004 5020     		movs	r0, #80
 1163 0006 FFF7FEFF 		bl	pvPortMalloc
ARM GAS  /tmp/ccryxT4X.s 			page 21


 1164 000a 041E     		subs	r4, r0, #0
 1165 000c 2DD0     		beq	.L199
 1166 000e 0025     		movs	r5, #0
 1167 0010 4623     		movs	r3, #70
 1168 0012 C554     		strb	r5, [r0, r3]
 1169 0014 453B     		subs	r3, r3, #69
 1170 0016 C363     		str	r3, [r0, #60]
 1171 0018 0060     		str	r0, [r0]
 1172 001a 0564     		str	r5, [r0, #64]
 1173 001c FFF7FEFF 		bl	vPortEnterCritical
 1174 0020 216C     		ldr	r1, [r4, #64]
 1175 0022 E36B     		ldr	r3, [r4, #60]
 1176 0024 2268     		ldr	r2, [r4]
 1177 0026 4B43     		muls	r3, r1
 1178 0028 D018     		adds	r0, r2, r3
 1179 002a 5B1A     		subs	r3, r3, r1
 1180 002c D318     		adds	r3, r2, r3
 1181 002e A260     		str	r2, [r4, #8]
 1182 0030 E360     		str	r3, [r4, #12]
 1183 0032 4422     		movs	r2, #68
 1184 0034 FF23     		movs	r3, #255
 1185 0036 6060     		str	r0, [r4, #4]
 1186 0038 2000     		movs	r0, r4
 1187 003a A563     		str	r5, [r4, #56]
 1188 003c A354     		strb	r3, [r4, r2]
 1189 003e 0132     		adds	r2, r2, #1
 1190 0040 A354     		strb	r3, [r4, r2]
 1191 0042 1030     		adds	r0, r0, #16
 1192 0044 FFF7FEFF 		bl	vListInitialise
 1193 0048 2000     		movs	r0, r4
 1194 004a 2430     		adds	r0, r0, #36
 1195 004c FFF7FEFF 		bl	vListInitialise
 1196 0050 FFF7FEFF 		bl	vPortExitCritical
 1197 0054 4C23     		movs	r3, #76
 1198 0056 0022     		movs	r2, #0
 1199 0058 E654     		strb	r6, [r4, r3]
 1200 005a 0021     		movs	r1, #0
 1201 005c 0023     		movs	r3, #0
 1202 005e 2000     		movs	r0, r4
 1203 0060 6560     		str	r5, [r4, #4]
 1204 0062 2560     		str	r5, [r4]
 1205 0064 E560     		str	r5, [r4, #12]
 1206 0066 FFF7FEFF 		bl	xQueueGenericSend
 1207              	.L199:
 1208 006a 2000     		movs	r0, r4
 1209              		@ sp needed
 1210 006c 70BD     		pop	{r4, r5, r6, pc}
 1212 006e C046     		.section	.text.xQueueGenericSendFromISR,"ax",%progbits
 1213              		.align	1
 1214              		.p2align 2,,3
 1215              		.global	xQueueGenericSendFromISR
 1216              		.syntax unified
 1217              		.code	16
 1218              		.thumb_func
 1219              		.fpu softvfp
 1221              	xQueueGenericSendFromISR:
 1222              		@ args = 0, pretend = 0, frame = 0
ARM GAS  /tmp/ccryxT4X.s 			page 22


 1223              		@ frame_needed = 0, uses_anonymous_args = 0
 1224 0000 F0B5     		push	{r4, r5, r6, r7, lr}
 1225 0002 4F46     		mov	r7, r9
 1226 0004 D646     		mov	lr, r10
 1227 0006 4646     		mov	r6, r8
 1228 0008 0400     		movs	r4, r0
 1229 000a C0B5     		push	{r6, r7, lr}
 1230 000c 9146     		mov	r9, r2
 1231 000e 0F00     		movs	r7, r1
 1232 0010 9A46     		mov	r10, r3
 1233 0012 0028     		cmp	r0, #0
 1234 0014 1FD0     		beq	.L224
 1235 0016 0029     		cmp	r1, #0
 1236 0018 18D0     		beq	.L225
 1237              	.L207:
 1238 001a 5346     		mov	r3, r10
 1239 001c 022B     		cmp	r3, #2
 1240 001e 04D1     		bne	.L209
 1241 0020 E36B     		ldr	r3, [r4, #60]
 1242 0022 012B     		cmp	r3, #1
 1243 0024 19D0     		beq	.L210
 1244              		.syntax divided
 1245              	@ 931 "Middlewares/Third_Party/FreeRTOS/Source/queue.c" 1
 1246 0026 72B6     		 cpsid i 
 1247              	@ 0 "" 2
 1248              		.thumb
 1249              		.syntax unified
 1250              	.L211:
 1251 0028 FEE7     		b	.L211
 1252              	.L209:
 1253 002a FFF7FEFF 		bl	ulSetInterruptMaskFromISR
 1254 002e A36B     		ldr	r3, [r4, #56]
 1255 0030 E26B     		ldr	r2, [r4, #60]
 1256 0032 0600     		movs	r6, r0
 1257 0034 9342     		cmp	r3, r2
 1258 0036 14D3     		bcc	.L214
 1259 0038 0025     		movs	r5, #0
 1260              	.L213:
 1261 003a 3000     		movs	r0, r6
 1262 003c FFF7FEFF 		bl	vClearInterruptMaskFromISR
 1263              		@ sp needed
 1264 0040 2800     		movs	r0, r5
 1265 0042 1CBC     		pop	{r2, r3, r4}
 1266 0044 9046     		mov	r8, r2
 1267 0046 9946     		mov	r9, r3
 1268 0048 A246     		mov	r10, r4
 1269 004a F0BD     		pop	{r4, r5, r6, r7, pc}
 1270              	.L225:
 1271 004c 036C     		ldr	r3, [r0, #64]
 1272 004e 002B     		cmp	r3, #0
 1273 0050 E3D0     		beq	.L207
 1274              		.syntax divided
 1275              	@ 930 "Middlewares/Third_Party/FreeRTOS/Source/queue.c" 1
 1276 0052 72B6     		 cpsid i 
 1277              	@ 0 "" 2
 1278              		.thumb
 1279              		.syntax unified
ARM GAS  /tmp/ccryxT4X.s 			page 23


 1280              	.L208:
 1281 0054 FEE7     		b	.L208
 1282              	.L224:
 1283              		.syntax divided
 1284              	@ 929 "Middlewares/Third_Party/FreeRTOS/Source/queue.c" 1
 1285 0056 72B6     		 cpsid i 
 1286              	@ 0 "" 2
 1287              		.thumb
 1288              		.syntax unified
 1289              	.L206:
 1290 0058 FEE7     		b	.L206
 1291              	.L210:
 1292 005a FFF7FEFF 		bl	ulSetInterruptMaskFromISR
 1293 005e 0600     		movs	r6, r0
 1294 0060 A36B     		ldr	r3, [r4, #56]
 1295              	.L214:
 1296 0062 4523     		movs	r3, #69
 1297 0064 E55C     		ldrb	r5, [r4, r3]
 1298 0066 5246     		mov	r2, r10
 1299 0068 6DB2     		sxtb	r5, r5
 1300 006a 3900     		movs	r1, r7
 1301 006c 2000     		movs	r0, r4
 1302 006e 9846     		mov	r8, r3
 1303 0070 FFF7FEFF 		bl	prvCopyDataToQueue
 1304 0074 6B1C     		adds	r3, r5, #1
 1305 0076 05D0     		beq	.L226
 1306 0078 4346     		mov	r3, r8
 1307 007a 0135     		adds	r5, r5, #1
 1308 007c 6DB2     		sxtb	r5, r5
 1309 007e E554     		strb	r5, [r4, r3]
 1310 0080 0125     		movs	r5, #1
 1311 0082 DAE7     		b	.L213
 1312              	.L226:
 1313 0084 636A     		ldr	r3, [r4, #36]
 1314 0086 0235     		adds	r5, r5, #2
 1315 0088 002B     		cmp	r3, #0
 1316 008a D6D0     		beq	.L213
 1317 008c 2000     		movs	r0, r4
 1318 008e 2430     		adds	r0, r0, #36
 1319 0090 FFF7FEFF 		bl	xTaskRemoveFromEventList
 1320 0094 0028     		cmp	r0, #0
 1321 0096 D0D0     		beq	.L213
 1322 0098 4B46     		mov	r3, r9
 1323 009a 002B     		cmp	r3, #0
 1324 009c CDD0     		beq	.L213
 1325 009e 1D60     		str	r5, [r3]
 1326 00a0 CBE7     		b	.L213
 1328 00a2 C046     		.section	.text.xQueueGiveFromISR,"ax",%progbits
 1329              		.align	1
 1330              		.p2align 2,,3
 1331              		.global	xQueueGiveFromISR
 1332              		.syntax unified
 1333              		.code	16
 1334              		.thumb_func
 1335              		.fpu softvfp
 1337              	xQueueGiveFromISR:
 1338              		@ args = 0, pretend = 0, frame = 0
ARM GAS  /tmp/ccryxT4X.s 			page 24


 1339              		@ frame_needed = 0, uses_anonymous_args = 0
 1340 0000 F8B5     		push	{r3, r4, r5, r6, r7, lr}
 1341 0002 0400     		movs	r4, r0
 1342 0004 0E00     		movs	r6, r1
 1343 0006 0028     		cmp	r0, #0
 1344 0008 1FD0     		beq	.L249
 1345 000a 036C     		ldr	r3, [r0, #64]
 1346 000c 002B     		cmp	r3, #0
 1347 000e 01D0     		beq	.L230
 1348              		.syntax divided
 1349              	@ 1090 "Middlewares/Third_Party/FreeRTOS/Source/queue.c" 1
 1350 0010 72B6     		 cpsid i 
 1351              	@ 0 "" 2
 1352              		.thumb
 1353              		.syntax unified
 1354              	.L231:
 1355 0012 FEE7     		b	.L231
 1356              	.L230:
 1357 0014 0368     		ldr	r3, [r0]
 1358 0016 002B     		cmp	r3, #0
 1359 0018 19D0     		beq	.L250
 1360              	.L232:
 1361 001a FFF7FEFF 		bl	ulSetInterruptMaskFromISR
 1362 001e A26B     		ldr	r2, [r4, #56]
 1363 0020 E36B     		ldr	r3, [r4, #60]
 1364 0022 0700     		movs	r7, r0
 1365 0024 0025     		movs	r5, #0
 1366 0026 9342     		cmp	r3, r2
 1367 0028 0AD9     		bls	.L234
 1368 002a 4521     		movs	r1, #69
 1369 002c 635C     		ldrb	r3, [r4, r1]
 1370 002e 0132     		adds	r2, r2, #1
 1371 0030 5BB2     		sxtb	r3, r3
 1372 0032 A263     		str	r2, [r4, #56]
 1373 0034 5A1C     		adds	r2, r3, #1
 1374 0036 0FD0     		beq	.L251
 1375 0038 0133     		adds	r3, r3, #1
 1376 003a 5BB2     		sxtb	r3, r3
 1377 003c 6354     		strb	r3, [r4, r1]
 1378              	.L248:
 1379 003e 0125     		movs	r5, #1
 1380              	.L234:
 1381 0040 3800     		movs	r0, r7
 1382 0042 FFF7FEFF 		bl	vClearInterruptMaskFromISR
 1383              		@ sp needed
 1384 0046 2800     		movs	r0, r5
 1385 0048 F8BD     		pop	{r3, r4, r5, r6, r7, pc}
 1386              	.L249:
 1387              		.syntax divided
 1388              	@ 1086 "Middlewares/Third_Party/FreeRTOS/Source/queue.c" 1
 1389 004a 72B6     		 cpsid i 
 1390              	@ 0 "" 2
 1391              		.thumb
 1392              		.syntax unified
 1393              	.L229:
 1394 004c FEE7     		b	.L229
 1395              	.L250:
ARM GAS  /tmp/ccryxT4X.s 			page 25


 1396 004e 4368     		ldr	r3, [r0, #4]
 1397 0050 002B     		cmp	r3, #0
 1398 0052 E2D0     		beq	.L232
 1399              		.syntax divided
 1400              	@ 1095 "Middlewares/Third_Party/FreeRTOS/Source/queue.c" 1
 1401 0054 72B6     		 cpsid i 
 1402              	@ 0 "" 2
 1403              		.thumb
 1404              		.syntax unified
 1405              	.L233:
 1406 0056 FEE7     		b	.L233
 1407              	.L251:
 1408 0058 636A     		ldr	r3, [r4, #36]
 1409 005a 002B     		cmp	r3, #0
 1410 005c EFD0     		beq	.L248
 1411 005e 2000     		movs	r0, r4
 1412 0060 2430     		adds	r0, r0, #36
 1413 0062 FFF7FEFF 		bl	xTaskRemoveFromEventList
 1414 0066 0028     		cmp	r0, #0
 1415 0068 E9D0     		beq	.L248
 1416 006a 002E     		cmp	r6, #0
 1417 006c E7D0     		beq	.L248
 1418 006e 0123     		movs	r3, #1
 1419 0070 0125     		movs	r5, #1
 1420 0072 3360     		str	r3, [r6]
 1421 0074 E4E7     		b	.L234
 1423 0076 C046     		.section	.text.xQueueReceive,"ax",%progbits
 1424              		.align	1
 1425              		.p2align 2,,3
 1426              		.global	xQueueReceive
 1427              		.syntax unified
 1428              		.code	16
 1429              		.thumb_func
 1430              		.fpu softvfp
 1432              	xQueueReceive:
 1433              		@ args = 0, pretend = 0, frame = 16
 1434              		@ frame_needed = 0, uses_anonymous_args = 0
 1435 0000 F0B5     		push	{r4, r5, r6, r7, lr}
 1436 0002 4746     		mov	r7, r8
 1437 0004 CE46     		mov	lr, r9
 1438 0006 80B5     		push	{r7, lr}
 1439 0008 85B0     		sub	sp, sp, #20
 1440 000a 0400     		movs	r4, r0
 1441 000c 0F00     		movs	r7, r1
 1442 000e 0192     		str	r2, [sp, #4]
 1443 0010 0028     		cmp	r0, #0
 1444 0012 00D1     		bne	.LCB1451
 1445 0014 E8E0     		b	.L390	@long jump
 1446              	.LCB1451:
 1447 0016 0029     		cmp	r1, #0
 1448 0018 00D1     		bne	.LCB1453
 1449 001a 82E0     		b	.L391	@long jump
 1450              	.LCB1453:
 1451              	.L255:
 1452 001c FFF7FEFF 		bl	xTaskGetSchedulerState
 1453 0020 0028     		cmp	r0, #0
 1454 0022 79D0     		beq	.L257
ARM GAS  /tmp/ccryxT4X.s 			page 26


 1455              	.L260:
 1456 0024 FFF7FEFF 		bl	vPortEnterCritical
 1457 0028 A56B     		ldr	r5, [r4, #56]
 1458 002a 002D     		cmp	r5, #0
 1459 002c 00D0     		beq	.LCB1463
 1460 002e 31E1     		b	.L258	@long jump
 1461              	.LCB1463:
 1462 0030 019B     		ldr	r3, [sp, #4]
 1463 0032 002B     		cmp	r3, #0
 1464 0034 00D1     		bne	.LCB1467
 1465 0036 CFE0     		b	.L263	@long jump
 1466              	.LCB1467:
 1467 0038 02A8     		add	r0, sp, #8
 1468 003a FFF7FEFF 		bl	vTaskInternalSetTimeOutState
 1469 003e 2423     		movs	r3, #36
 1470 0040 9846     		mov	r8, r3
 1471 0042 4426     		movs	r6, #68
 1472 0044 A044     		add	r8, r8, r4
 1473              	.L272:
 1474 0046 FFF7FEFF 		bl	vPortExitCritical
 1475 004a FFF7FEFF 		bl	vTaskSuspendAll
 1476 004e FFF7FEFF 		bl	vPortEnterCritical
 1477 0052 A35D     		ldrb	r3, [r4, r6]
 1478 0054 5BB2     		sxtb	r3, r3
 1479 0056 0133     		adds	r3, r3, #1
 1480 0058 01D1     		bne	.L273
 1481 005a 0023     		movs	r3, #0
 1482 005c A355     		strb	r3, [r4, r6]
 1483              	.L273:
 1484 005e 4522     		movs	r2, #69
 1485 0060 A35C     		ldrb	r3, [r4, r2]
 1486 0062 5BB2     		sxtb	r3, r3
 1487 0064 0133     		adds	r3, r3, #1
 1488 0066 01D1     		bne	.L274
 1489 0068 0023     		movs	r3, #0
 1490 006a A354     		strb	r3, [r4, r2]
 1491              	.L274:
 1492 006c FFF7FEFF 		bl	vPortExitCritical
 1493 0070 01A9     		add	r1, sp, #4
 1494 0072 02A8     		add	r0, sp, #8
 1495 0074 FFF7FEFF 		bl	xTaskCheckForTimeOut
 1496 0078 0028     		cmp	r0, #0
 1497 007a 58D1     		bne	.L275
 1498 007c FFF7FEFF 		bl	vPortEnterCritical
 1499 0080 A36B     		ldr	r3, [r4, #56]
 1500 0082 002B     		cmp	r3, #0
 1501 0084 00D1     		bne	.LCB1508
 1502 0086 B1E0     		b	.L276	@long jump
 1503              	.LCB1508:
 1504 0088 FFF7FEFF 		bl	vPortExitCritical
 1505 008c FFF7FEFF 		bl	vPortEnterCritical
 1506 0090 4523     		movs	r3, #69
 1507 0092 E55C     		ldrb	r5, [r4, r3]
 1508 0094 6DB2     		sxtb	r5, r5
 1509 0096 002D     		cmp	r5, #0
 1510 0098 05DC     		bgt	.L277
 1511 009a 13E0     		b	.L280
ARM GAS  /tmp/ccryxT4X.s 			page 27


 1512              	.L281:
 1513 009c 013D     		subs	r5, r5, #1
 1514 009e EBB2     		uxtb	r3, r5
 1515 00a0 6DB2     		sxtb	r5, r5
 1516 00a2 002B     		cmp	r3, #0
 1517 00a4 0ED0     		beq	.L280
 1518              	.L277:
 1519 00a6 636A     		ldr	r3, [r4, #36]
 1520 00a8 002B     		cmp	r3, #0
 1521 00aa 0BD0     		beq	.L280
 1522 00ac 4046     		mov	r0, r8
 1523 00ae FFF7FEFF 		bl	xTaskRemoveFromEventList
 1524 00b2 0028     		cmp	r0, #0
 1525 00b4 F2D0     		beq	.L281
 1526 00b6 013D     		subs	r5, r5, #1
 1527 00b8 FFF7FEFF 		bl	vTaskMissedYield
 1528 00bc EBB2     		uxtb	r3, r5
 1529 00be 6DB2     		sxtb	r5, r5
 1530 00c0 002B     		cmp	r3, #0
 1531 00c2 F0D1     		bne	.L277
 1532              	.L280:
 1533 00c4 4523     		movs	r3, #69
 1534 00c6 FF22     		movs	r2, #255
 1535 00c8 E254     		strb	r2, [r4, r3]
 1536 00ca FFF7FEFF 		bl	vPortExitCritical
 1537 00ce FFF7FEFF 		bl	vPortEnterCritical
 1538 00d2 1023     		movs	r3, #16
 1539 00d4 9946     		mov	r9, r3
 1540 00d6 A55D     		ldrb	r5, [r4, r6]
 1541 00d8 A144     		add	r9, r9, r4
 1542 00da 6DB2     		sxtb	r5, r5
 1543 00dc 002D     		cmp	r5, #0
 1544 00de 05DC     		bgt	.L278
 1545 00e0 13E0     		b	.L279
 1546              	.L283:
 1547 00e2 013D     		subs	r5, r5, #1
 1548 00e4 EBB2     		uxtb	r3, r5
 1549 00e6 6DB2     		sxtb	r5, r5
 1550 00e8 002B     		cmp	r3, #0
 1551 00ea 0ED0     		beq	.L279
 1552              	.L278:
 1553 00ec 2369     		ldr	r3, [r4, #16]
 1554 00ee 002B     		cmp	r3, #0
 1555 00f0 0BD0     		beq	.L279
 1556 00f2 4846     		mov	r0, r9
 1557 00f4 FFF7FEFF 		bl	xTaskRemoveFromEventList
 1558 00f8 0028     		cmp	r0, #0
 1559 00fa F2D0     		beq	.L283
 1560 00fc 013D     		subs	r5, r5, #1
 1561 00fe FFF7FEFF 		bl	vTaskMissedYield
 1562 0102 EBB2     		uxtb	r3, r5
 1563 0104 6DB2     		sxtb	r5, r5
 1564 0106 002B     		cmp	r3, #0
 1565 0108 F0D1     		bne	.L278
 1566              	.L279:
 1567 010a FF23     		movs	r3, #255
 1568 010c A355     		strb	r3, [r4, r6]
ARM GAS  /tmp/ccryxT4X.s 			page 28


 1569 010e FFF7FEFF 		bl	vPortExitCritical
 1570 0112 FFF7FEFF 		bl	xTaskResumeAll
 1571 0116 56E0     		b	.L389
 1572              	.L257:
 1573 0118 019B     		ldr	r3, [sp, #4]
 1574 011a 002B     		cmp	r3, #0
 1575 011c 82D0     		beq	.L260
 1576              		.syntax divided
 1577              	@ 1255 "Middlewares/Third_Party/FreeRTOS/Source/queue.c" 1
 1578 011e 72B6     		 cpsid i 
 1579              	@ 0 "" 2
 1580              		.thumb
 1581              		.syntax unified
 1582              	.L261:
 1583 0120 FEE7     		b	.L261
 1584              	.L391:
 1585 0122 036C     		ldr	r3, [r0, #64]
 1586 0124 002B     		cmp	r3, #0
 1587 0126 00D1     		bne	.LCB1600
 1588 0128 78E7     		b	.L255	@long jump
 1589              	.LCB1600:
 1590              		.syntax divided
 1591              	@ 1250 "Middlewares/Third_Party/FreeRTOS/Source/queue.c" 1
 1592 012a 72B6     		 cpsid i 
 1593              	@ 0 "" 2
 1594              		.thumb
 1595              		.syntax unified
 1596              	.L256:
 1597 012c FEE7     		b	.L256
 1598              	.L275:
 1599 012e FFF7FEFF 		bl	vPortEnterCritical
 1600 0132 4523     		movs	r3, #69
 1601 0134 E55C     		ldrb	r5, [r4, r3]
 1602 0136 6DB2     		sxtb	r5, r5
 1603 0138 002D     		cmp	r5, #0
 1604 013a 05DC     		bgt	.L293
 1605 013c 13E0     		b	.L296
 1606              	.L297:
 1607 013e 013D     		subs	r5, r5, #1
 1608 0140 EBB2     		uxtb	r3, r5
 1609 0142 6DB2     		sxtb	r5, r5
 1610 0144 002B     		cmp	r3, #0
 1611 0146 0ED0     		beq	.L296
 1612              	.L293:
 1613 0148 636A     		ldr	r3, [r4, #36]
 1614 014a 002B     		cmp	r3, #0
 1615 014c 0BD0     		beq	.L296
 1616 014e 4046     		mov	r0, r8
 1617 0150 FFF7FEFF 		bl	xTaskRemoveFromEventList
 1618 0154 0028     		cmp	r0, #0
 1619 0156 F2D0     		beq	.L297
 1620 0158 013D     		subs	r5, r5, #1
 1621 015a FFF7FEFF 		bl	vTaskMissedYield
 1622 015e EBB2     		uxtb	r3, r5
 1623 0160 6DB2     		sxtb	r5, r5
 1624 0162 002B     		cmp	r3, #0
 1625 0164 F0D1     		bne	.L293
ARM GAS  /tmp/ccryxT4X.s 			page 29


 1626              	.L296:
 1627 0166 4523     		movs	r3, #69
 1628 0168 FF22     		movs	r2, #255
 1629 016a E254     		strb	r2, [r4, r3]
 1630 016c FFF7FEFF 		bl	vPortExitCritical
 1631 0170 FFF7FEFF 		bl	vPortEnterCritical
 1632 0174 1023     		movs	r3, #16
 1633 0176 9946     		mov	r9, r3
 1634 0178 A55D     		ldrb	r5, [r4, r6]
 1635 017a A144     		add	r9, r9, r4
 1636 017c 6DB2     		sxtb	r5, r5
 1637 017e 002D     		cmp	r5, #0
 1638 0180 05DC     		bgt	.L294
 1639 0182 13E0     		b	.L295
 1640              	.L299:
 1641 0184 013D     		subs	r5, r5, #1
 1642 0186 EBB2     		uxtb	r3, r5
 1643 0188 6DB2     		sxtb	r5, r5
 1644 018a 002B     		cmp	r3, #0
 1645 018c 0ED0     		beq	.L295
 1646              	.L294:
 1647 018e 2369     		ldr	r3, [r4, #16]
 1648 0190 002B     		cmp	r3, #0
 1649 0192 0BD0     		beq	.L295
 1650 0194 4846     		mov	r0, r9
 1651 0196 FFF7FEFF 		bl	xTaskRemoveFromEventList
 1652 019a 0028     		cmp	r0, #0
 1653 019c F2D0     		beq	.L299
 1654 019e 013D     		subs	r5, r5, #1
 1655 01a0 FFF7FEFF 		bl	vTaskMissedYield
 1656 01a4 EBB2     		uxtb	r3, r5
 1657 01a6 6DB2     		sxtb	r5, r5
 1658 01a8 002B     		cmp	r3, #0
 1659 01aa F0D1     		bne	.L294
 1660              	.L295:
 1661 01ac FF23     		movs	r3, #255
 1662 01ae A355     		strb	r3, [r4, r6]
 1663 01b0 FFF7FEFF 		bl	vPortExitCritical
 1664 01b4 FFF7FEFF 		bl	xTaskResumeAll
 1665 01b8 FFF7FEFF 		bl	vPortEnterCritical
 1666 01bc A36B     		ldr	r3, [r4, #56]
 1667 01be 002B     		cmp	r3, #0
 1668 01c0 0AD0     		beq	.L263
 1669 01c2 FFF7FEFF 		bl	vPortExitCritical
 1670              	.L389:
 1671 01c6 FFF7FEFF 		bl	vPortEnterCritical
 1672 01ca A56B     		ldr	r5, [r4, #56]
 1673 01cc 002D     		cmp	r5, #0
 1674 01ce 61D1     		bne	.L258
 1675              	.L378:
 1676 01d0 019B     		ldr	r3, [sp, #4]
 1677 01d2 002B     		cmp	r3, #0
 1678 01d4 00D0     		beq	.LCB1695
 1679 01d6 36E7     		b	.L272	@long jump
 1680              	.LCB1695:
 1681              	.L263:
 1682 01d8 FFF7FEFF 		bl	vPortExitCritical
ARM GAS  /tmp/ccryxT4X.s 			page 30


 1683 01dc 0020     		movs	r0, #0
 1684              	.L252:
 1685 01de 05B0     		add	sp, sp, #20
 1686              		@ sp needed
 1687 01e0 0CBC     		pop	{r2, r3}
 1688 01e2 9046     		mov	r8, r2
 1689 01e4 9946     		mov	r9, r3
 1690 01e6 F0BD     		pop	{r4, r5, r6, r7, pc}
 1691              	.L390:
 1692              		.syntax divided
 1693              	@ 1246 "Middlewares/Third_Party/FreeRTOS/Source/queue.c" 1
 1694 01e8 72B6     		 cpsid i 
 1695              	@ 0 "" 2
 1696              		.thumb
 1697              		.syntax unified
 1698              	.L254:
 1699 01ea FEE7     		b	.L254
 1700              	.L276:
 1701 01ec FFF7FEFF 		bl	vPortExitCritical
 1702 01f0 4046     		mov	r0, r8
 1703 01f2 0199     		ldr	r1, [sp, #4]
 1704 01f4 FFF7FEFF 		bl	vTaskPlaceOnEventList
 1705 01f8 FFF7FEFF 		bl	vPortEnterCritical
 1706 01fc 4523     		movs	r3, #69
 1707 01fe E55C     		ldrb	r5, [r4, r3]
 1708 0200 6DB2     		sxtb	r5, r5
 1709 0202 002D     		cmp	r5, #0
 1710 0204 05DC     		bgt	.L284
 1711 0206 13E0     		b	.L287
 1712              	.L288:
 1713 0208 013D     		subs	r5, r5, #1
 1714 020a EBB2     		uxtb	r3, r5
 1715 020c 6DB2     		sxtb	r5, r5
 1716 020e 002B     		cmp	r3, #0
 1717 0210 0ED0     		beq	.L287
 1718              	.L284:
 1719 0212 636A     		ldr	r3, [r4, #36]
 1720 0214 002B     		cmp	r3, #0
 1721 0216 0BD0     		beq	.L287
 1722 0218 4046     		mov	r0, r8
 1723 021a FFF7FEFF 		bl	xTaskRemoveFromEventList
 1724 021e 0028     		cmp	r0, #0
 1725 0220 F2D0     		beq	.L288
 1726 0222 013D     		subs	r5, r5, #1
 1727 0224 FFF7FEFF 		bl	vTaskMissedYield
 1728 0228 EBB2     		uxtb	r3, r5
 1729 022a 6DB2     		sxtb	r5, r5
 1730 022c 002B     		cmp	r3, #0
 1731 022e F0D1     		bne	.L284
 1732              	.L287:
 1733 0230 4523     		movs	r3, #69
 1734 0232 FF22     		movs	r2, #255
 1735 0234 E254     		strb	r2, [r4, r3]
 1736 0236 FFF7FEFF 		bl	vPortExitCritical
 1737 023a FFF7FEFF 		bl	vPortEnterCritical
 1738 023e 1023     		movs	r3, #16
 1739 0240 9946     		mov	r9, r3
ARM GAS  /tmp/ccryxT4X.s 			page 31


 1740 0242 A55D     		ldrb	r5, [r4, r6]
 1741 0244 A144     		add	r9, r9, r4
 1742 0246 6DB2     		sxtb	r5, r5
 1743 0248 002D     		cmp	r5, #0
 1744 024a 05DC     		bgt	.L285
 1745 024c 13E0     		b	.L286
 1746              	.L291:
 1747 024e 013D     		subs	r5, r5, #1
 1748 0250 EBB2     		uxtb	r3, r5
 1749 0252 6DB2     		sxtb	r5, r5
 1750 0254 002B     		cmp	r3, #0
 1751 0256 0ED0     		beq	.L286
 1752              	.L285:
 1753 0258 2369     		ldr	r3, [r4, #16]
 1754 025a 002B     		cmp	r3, #0
 1755 025c 0BD0     		beq	.L286
 1756 025e 4846     		mov	r0, r9
 1757 0260 FFF7FEFF 		bl	xTaskRemoveFromEventList
 1758 0264 0028     		cmp	r0, #0
 1759 0266 F2D0     		beq	.L291
 1760 0268 013D     		subs	r5, r5, #1
 1761 026a FFF7FEFF 		bl	vTaskMissedYield
 1762 026e EBB2     		uxtb	r3, r5
 1763 0270 6DB2     		sxtb	r5, r5
 1764 0272 002B     		cmp	r3, #0
 1765 0274 F0D1     		bne	.L285
 1766              	.L286:
 1767 0276 FF23     		movs	r3, #255
 1768 0278 A355     		strb	r3, [r4, r6]
 1769 027a FFF7FEFF 		bl	vPortExitCritical
 1770 027e FFF7FEFF 		bl	xTaskResumeAll
 1771 0282 0028     		cmp	r0, #0
 1772 0284 9FD1     		bne	.L389
 1773 0286 FFF7FEFF 		bl	vPortYield
 1774 028a FFF7FEFF 		bl	vPortEnterCritical
 1775 028e A56B     		ldr	r5, [r4, #56]
 1776 0290 002D     		cmp	r5, #0
 1777 0292 9DD0     		beq	.L378
 1778              	.L258:
 1779 0294 226C     		ldr	r2, [r4, #64]
 1780 0296 002A     		cmp	r2, #0
 1781 0298 0AD0     		beq	.L265
 1782 029a E368     		ldr	r3, [r4, #12]
 1783 029c 9918     		adds	r1, r3, r2
 1784 029e 6368     		ldr	r3, [r4, #4]
 1785 02a0 E160     		str	r1, [r4, #12]
 1786 02a2 9942     		cmp	r1, r3
 1787 02a4 01D3     		bcc	.L266
 1788 02a6 2168     		ldr	r1, [r4]
 1789 02a8 E160     		str	r1, [r4, #12]
 1790              	.L266:
 1791 02aa 3800     		movs	r0, r7
 1792 02ac FFF7FEFF 		bl	memcpy
 1793              	.L265:
 1794 02b0 013D     		subs	r5, r5, #1
 1795 02b2 A563     		str	r5, [r4, #56]
 1796 02b4 2369     		ldr	r3, [r4, #16]
ARM GAS  /tmp/ccryxT4X.s 			page 32


 1797 02b6 002B     		cmp	r3, #0
 1798 02b8 03D1     		bne	.L392
 1799              	.L268:
 1800 02ba FFF7FEFF 		bl	vPortExitCritical
 1801 02be 0120     		movs	r0, #1
 1802 02c0 8DE7     		b	.L252
 1803              	.L392:
 1804 02c2 2000     		movs	r0, r4
 1805 02c4 1030     		adds	r0, r0, #16
 1806 02c6 FFF7FEFF 		bl	xTaskRemoveFromEventList
 1807 02ca 0028     		cmp	r0, #0
 1808 02cc F5D0     		beq	.L268
 1809 02ce FFF7FEFF 		bl	vPortYield
 1810 02d2 F2E7     		b	.L268
 1812              		.section	.text.xQueueSemaphoreTake,"ax",%progbits
 1813              		.align	1
 1814              		.p2align 2,,3
 1815              		.global	xQueueSemaphoreTake
 1816              		.syntax unified
 1817              		.code	16
 1818              		.thumb_func
 1819              		.fpu softvfp
 1821              	xQueueSemaphoreTake:
 1822              		@ args = 0, pretend = 0, frame = 16
 1823              		@ frame_needed = 0, uses_anonymous_args = 0
 1824 0000 F0B5     		push	{r4, r5, r6, r7, lr}
 1825 0002 C646     		mov	lr, r8
 1826 0004 00B5     		push	{lr}
 1827 0006 84B0     		sub	sp, sp, #16
 1828 0008 041E     		subs	r4, r0, #0
 1829 000a 0191     		str	r1, [sp, #4]
 1830 000c 04D0     		beq	.L491
 1831 000e 036C     		ldr	r3, [r0, #64]
 1832 0010 002B     		cmp	r3, #0
 1833 0012 03D0     		beq	.L396
 1834              		.syntax divided
 1835              	@ 1395 "Middlewares/Third_Party/FreeRTOS/Source/queue.c" 1
 1836 0014 72B6     		 cpsid i 
 1837              	@ 0 "" 2
 1838              		.thumb
 1839              		.syntax unified
 1840              	.L397:
 1841 0016 FEE7     		b	.L397
 1842              	.L491:
 1843              		.syntax divided
 1844              	@ 1391 "Middlewares/Third_Party/FreeRTOS/Source/queue.c" 1
 1845 0018 72B6     		 cpsid i 
 1846              	@ 0 "" 2
 1847              		.thumb
 1848              		.syntax unified
 1849              	.L395:
 1850 001a FEE7     		b	.L395
 1851              	.L396:
 1852 001c FFF7FEFF 		bl	xTaskGetSchedulerState
 1853 0020 061E     		subs	r6, r0, #0
 1854 0022 00D1     		bne	.LCB1882
 1855 0024 22E1     		b	.L492	@long jump
ARM GAS  /tmp/ccryxT4X.s 			page 33


 1856              	.LCB1882:
 1857 0026 0025     		movs	r5, #0
 1858 0028 0026     		movs	r6, #0
 1859              	.L398:
 1860 002a 2700     		movs	r7, r4
 1861 002c 2437     		adds	r7, r7, #36
 1862              	.L400:
 1863 002e FFF7FEFF 		bl	vPortEnterCritical
 1864 0032 A36B     		ldr	r3, [r4, #56]
 1865 0034 002B     		cmp	r3, #0
 1866 0036 00D0     		beq	.LCB1895
 1867 0038 1FE1     		b	.L493	@long jump
 1868              	.LCB1895:
 1869 003a 019B     		ldr	r3, [sp, #4]
 1870 003c 002B     		cmp	r3, #0
 1871 003e 00D1     		bne	.LCB1899
 1872 0040 40E1     		b	.L494	@long jump
 1873              	.LCB1899:
 1874 0042 002E     		cmp	r6, #0
 1875 0044 00D1     		bne	.LCB1901
 1876 0046 0DE1     		b	.L495	@long jump
 1877              	.LCB1901:
 1878              	.L410:
 1879 0048 FFF7FEFF 		bl	vPortExitCritical
 1880 004c FFF7FEFF 		bl	vTaskSuspendAll
 1881 0050 FFF7FEFF 		bl	vPortEnterCritical
 1882 0054 4422     		movs	r2, #68
 1883 0056 A35C     		ldrb	r3, [r4, r2]
 1884 0058 5BB2     		sxtb	r3, r3
 1885 005a 0133     		adds	r3, r3, #1
 1886 005c 01D1     		bne	.L411
 1887 005e 0023     		movs	r3, #0
 1888 0060 A354     		strb	r3, [r4, r2]
 1889              	.L411:
 1890 0062 4522     		movs	r2, #69
 1891 0064 A35C     		ldrb	r3, [r4, r2]
 1892 0066 5BB2     		sxtb	r3, r3
 1893 0068 0133     		adds	r3, r3, #1
 1894 006a 01D1     		bne	.L412
 1895 006c 0023     		movs	r3, #0
 1896 006e A354     		strb	r3, [r4, r2]
 1897              	.L412:
 1898 0070 FFF7FEFF 		bl	vPortExitCritical
 1899 0074 01A9     		add	r1, sp, #4
 1900 0076 02A8     		add	r0, sp, #8
 1901 0078 FFF7FEFF 		bl	xTaskCheckForTimeOut
 1902 007c 0028     		cmp	r0, #0
 1903 007e 1FD1     		bne	.L413
 1904 0080 FFF7FEFF 		bl	vPortEnterCritical
 1905 0084 A36B     		ldr	r3, [r4, #56]
 1906 0086 002B     		cmp	r3, #0
 1907 0088 00D1     		bne	.LCB1934
 1908 008a 9CE0     		b	.L414	@long jump
 1909              	.LCB1934:
 1910 008c FFF7FEFF 		bl	vPortExitCritical
 1911 0090 FFF7FEFF 		bl	vPortEnterCritical
 1912 0094 4523     		movs	r3, #69
ARM GAS  /tmp/ccryxT4X.s 			page 34


 1913 0096 E65C     		ldrb	r6, [r4, r3]
 1914 0098 76B2     		sxtb	r6, r6
 1915 009a 002E     		cmp	r6, #0
 1916 009c 05DC     		bgt	.L417
 1917 009e 69E0     		b	.L415
 1918              	.L416:
 1919 00a0 013E     		subs	r6, r6, #1
 1920 00a2 F3B2     		uxtb	r3, r6
 1921 00a4 76B2     		sxtb	r6, r6
 1922 00a6 002B     		cmp	r3, #0
 1923 00a8 64D0     		beq	.L415
 1924              	.L417:
 1925 00aa 636A     		ldr	r3, [r4, #36]
 1926 00ac 002B     		cmp	r3, #0
 1927 00ae 61D0     		beq	.L415
 1928 00b0 3800     		movs	r0, r7
 1929 00b2 FFF7FEFF 		bl	xTaskRemoveFromEventList
 1930 00b6 0028     		cmp	r0, #0
 1931 00b8 F2D0     		beq	.L416
 1932 00ba FFF7FEFF 		bl	vTaskMissedYield
 1933 00be EFE7     		b	.L416
 1934              	.L413:
 1935 00c0 FFF7FEFF 		bl	vPortEnterCritical
 1936 00c4 4523     		movs	r3, #69
 1937 00c6 E65C     		ldrb	r6, [r4, r3]
 1938 00c8 76B2     		sxtb	r6, r6
 1939 00ca 002E     		cmp	r6, #0
 1940 00cc 05DC     		bgt	.L431
 1941 00ce 13E0     		b	.L429
 1942              	.L430:
 1943 00d0 013E     		subs	r6, r6, #1
 1944 00d2 F3B2     		uxtb	r3, r6
 1945 00d4 76B2     		sxtb	r6, r6
 1946 00d6 002B     		cmp	r3, #0
 1947 00d8 0ED0     		beq	.L429
 1948              	.L431:
 1949 00da 636A     		ldr	r3, [r4, #36]
 1950 00dc 002B     		cmp	r3, #0
 1951 00de 0BD0     		beq	.L429
 1952 00e0 3800     		movs	r0, r7
 1953 00e2 FFF7FEFF 		bl	xTaskRemoveFromEventList
 1954 00e6 0028     		cmp	r0, #0
 1955 00e8 F2D0     		beq	.L430
 1956 00ea 013E     		subs	r6, r6, #1
 1957 00ec FFF7FEFF 		bl	vTaskMissedYield
 1958 00f0 F3B2     		uxtb	r3, r6
 1959 00f2 76B2     		sxtb	r6, r6
 1960 00f4 002B     		cmp	r3, #0
 1961 00f6 F0D1     		bne	.L431
 1962              	.L429:
 1963 00f8 4523     		movs	r3, #69
 1964 00fa FF22     		movs	r2, #255
 1965 00fc E254     		strb	r2, [r4, r3]
 1966 00fe FFF7FEFF 		bl	vPortExitCritical
 1967 0102 FFF7FEFF 		bl	vPortEnterCritical
 1968 0106 4423     		movs	r3, #68
 1969 0108 E65C     		ldrb	r6, [r4, r3]
ARM GAS  /tmp/ccryxT4X.s 			page 35


 1970 010a 76B2     		sxtb	r6, r6
 1971 010c 002E     		cmp	r6, #0
 1972 010e 17DD     		ble	.L432
 1973 0110 343B     		subs	r3, r3, #52
 1974 0112 9846     		mov	r8, r3
 1975 0114 A044     		add	r8, r8, r4
 1976 0116 04E0     		b	.L434
 1977              	.L433:
 1978 0118 013E     		subs	r6, r6, #1
 1979 011a F3B2     		uxtb	r3, r6
 1980 011c 76B2     		sxtb	r6, r6
 1981 011e 002B     		cmp	r3, #0
 1982 0120 0ED0     		beq	.L432
 1983              	.L434:
 1984 0122 2369     		ldr	r3, [r4, #16]
 1985 0124 002B     		cmp	r3, #0
 1986 0126 0BD0     		beq	.L432
 1987 0128 4046     		mov	r0, r8
 1988 012a FFF7FEFF 		bl	xTaskRemoveFromEventList
 1989 012e 0028     		cmp	r0, #0
 1990 0130 F2D0     		beq	.L433
 1991 0132 013E     		subs	r6, r6, #1
 1992 0134 FFF7FEFF 		bl	vTaskMissedYield
 1993 0138 F3B2     		uxtb	r3, r6
 1994 013a 76B2     		sxtb	r6, r6
 1995 013c 002B     		cmp	r3, #0
 1996 013e F0D1     		bne	.L434
 1997              	.L432:
 1998 0140 4423     		movs	r3, #68
 1999 0142 FF22     		movs	r2, #255
 2000 0144 E254     		strb	r2, [r4, r3]
 2001 0146 FFF7FEFF 		bl	vPortExitCritical
 2002 014a FFF7FEFF 		bl	xTaskResumeAll
 2003 014e FFF7FEFF 		bl	vPortEnterCritical
 2004 0152 A36B     		ldr	r3, [r4, #56]
 2005 0154 002B     		cmp	r3, #0
 2006 0156 03D0     		beq	.L435
 2007 0158 FFF7FEFF 		bl	vPortExitCritical
 2008              	.L421:
 2009 015c 0126     		movs	r6, #1
 2010 015e 66E7     		b	.L400
 2011              	.L435:
 2012 0160 FFF7FEFF 		bl	vPortExitCritical
 2013 0164 002D     		cmp	r5, #0
 2014 0166 00D0     		beq	.LCB2053
 2015 0168 9CE0     		b	.L496	@long jump
 2016              	.LCB2053:
 2017              	.L393:
 2018 016a 2800     		movs	r0, r5
 2019 016c 04B0     		add	sp, sp, #16
 2020              		@ sp needed
 2021 016e 04BC     		pop	{r2}
 2022 0170 9046     		mov	r8, r2
 2023 0172 F0BD     		pop	{r4, r5, r6, r7, pc}
 2024              	.L415:
 2025 0174 4523     		movs	r3, #69
 2026 0176 FF22     		movs	r2, #255
ARM GAS  /tmp/ccryxT4X.s 			page 36


 2027 0178 E254     		strb	r2, [r4, r3]
 2028 017a FFF7FEFF 		bl	vPortExitCritical
 2029 017e FFF7FEFF 		bl	vPortEnterCritical
 2030 0182 4423     		movs	r3, #68
 2031 0184 E65C     		ldrb	r6, [r4, r3]
 2032 0186 76B2     		sxtb	r6, r6
 2033 0188 002E     		cmp	r6, #0
 2034 018a 13DD     		ble	.L418
 2035 018c 343B     		subs	r3, r3, #52
 2036 018e 9846     		mov	r8, r3
 2037 0190 A044     		add	r8, r8, r4
 2038 0192 04E0     		b	.L420
 2039              	.L419:
 2040 0194 013E     		subs	r6, r6, #1
 2041 0196 F3B2     		uxtb	r3, r6
 2042 0198 76B2     		sxtb	r6, r6
 2043 019a 002B     		cmp	r3, #0
 2044 019c 0AD0     		beq	.L418
 2045              	.L420:
 2046 019e 2369     		ldr	r3, [r4, #16]
 2047 01a0 002B     		cmp	r3, #0
 2048 01a2 07D0     		beq	.L418
 2049 01a4 4046     		mov	r0, r8
 2050 01a6 FFF7FEFF 		bl	xTaskRemoveFromEventList
 2051 01aa 0028     		cmp	r0, #0
 2052 01ac F2D0     		beq	.L419
 2053 01ae FFF7FEFF 		bl	vTaskMissedYield
 2054 01b2 EFE7     		b	.L419
 2055              	.L418:
 2056 01b4 4423     		movs	r3, #68
 2057 01b6 FF22     		movs	r2, #255
 2058 01b8 E254     		strb	r2, [r4, r3]
 2059 01ba FFF7FEFF 		bl	vPortExitCritical
 2060 01be 0126     		movs	r6, #1
 2061 01c0 FFF7FEFF 		bl	xTaskResumeAll
 2062 01c4 33E7     		b	.L400
 2063              	.L414:
 2064 01c6 FFF7FEFF 		bl	vPortExitCritical
 2065 01ca 2368     		ldr	r3, [r4]
 2066 01cc 002B     		cmp	r3, #0
 2067 01ce 60D0     		beq	.L497
 2068              	.L422:
 2069 01d0 3800     		movs	r0, r7
 2070 01d2 0199     		ldr	r1, [sp, #4]
 2071 01d4 FFF7FEFF 		bl	vTaskPlaceOnEventList
 2072 01d8 FFF7FEFF 		bl	vPortEnterCritical
 2073 01dc 4523     		movs	r3, #69
 2074 01de E65C     		ldrb	r6, [r4, r3]
 2075 01e0 76B2     		sxtb	r6, r6
 2076 01e2 002E     		cmp	r6, #0
 2077 01e4 05DC     		bgt	.L425
 2078 01e6 0FE0     		b	.L423
 2079              	.L424:
 2080 01e8 013E     		subs	r6, r6, #1
 2081 01ea F3B2     		uxtb	r3, r6
 2082 01ec 76B2     		sxtb	r6, r6
 2083 01ee 002B     		cmp	r3, #0
ARM GAS  /tmp/ccryxT4X.s 			page 37


 2084 01f0 0AD0     		beq	.L423
 2085              	.L425:
 2086 01f2 636A     		ldr	r3, [r4, #36]
 2087 01f4 002B     		cmp	r3, #0
 2088 01f6 07D0     		beq	.L423
 2089 01f8 3800     		movs	r0, r7
 2090 01fa FFF7FEFF 		bl	xTaskRemoveFromEventList
 2091 01fe 0028     		cmp	r0, #0
 2092 0200 F2D0     		beq	.L424
 2093 0202 FFF7FEFF 		bl	vTaskMissedYield
 2094 0206 EFE7     		b	.L424
 2095              	.L423:
 2096 0208 4523     		movs	r3, #69
 2097 020a FF22     		movs	r2, #255
 2098 020c E254     		strb	r2, [r4, r3]
 2099 020e FFF7FEFF 		bl	vPortExitCritical
 2100 0212 FFF7FEFF 		bl	vPortEnterCritical
 2101 0216 4423     		movs	r3, #68
 2102 0218 E65C     		ldrb	r6, [r4, r3]
 2103 021a 76B2     		sxtb	r6, r6
 2104 021c 002E     		cmp	r6, #0
 2105 021e 13DD     		ble	.L426
 2106 0220 343B     		subs	r3, r3, #52
 2107 0222 9846     		mov	r8, r3
 2108 0224 A044     		add	r8, r8, r4
 2109 0226 04E0     		b	.L428
 2110              	.L427:
 2111 0228 013E     		subs	r6, r6, #1
 2112 022a F3B2     		uxtb	r3, r6
 2113 022c 76B2     		sxtb	r6, r6
 2114 022e 002B     		cmp	r3, #0
 2115 0230 0AD0     		beq	.L426
 2116              	.L428:
 2117 0232 2369     		ldr	r3, [r4, #16]
 2118 0234 002B     		cmp	r3, #0
 2119 0236 07D0     		beq	.L426
 2120 0238 4046     		mov	r0, r8
 2121 023a FFF7FEFF 		bl	xTaskRemoveFromEventList
 2122 023e 0028     		cmp	r0, #0
 2123 0240 F2D0     		beq	.L427
 2124 0242 FFF7FEFF 		bl	vTaskMissedYield
 2125 0246 EFE7     		b	.L427
 2126              	.L426:
 2127 0248 4423     		movs	r3, #68
 2128 024a FF22     		movs	r2, #255
 2129 024c E254     		strb	r2, [r4, r3]
 2130 024e FFF7FEFF 		bl	vPortExitCritical
 2131 0252 FFF7FEFF 		bl	xTaskResumeAll
 2132 0256 0028     		cmp	r0, #0
 2133 0258 00D0     		beq	.LCB2197
 2134 025a 7FE7     		b	.L421	@long jump
 2135              	.LCB2197:
 2136 025c FFF7FEFF 		bl	vPortYield
 2137 0260 0126     		movs	r6, #1
 2138 0262 E4E6     		b	.L400
 2139              	.L495:
 2140 0264 02A8     		add	r0, sp, #8
ARM GAS  /tmp/ccryxT4X.s 			page 38


 2141 0266 FFF7FEFF 		bl	vTaskInternalSetTimeOutState
 2142 026a EDE6     		b	.L410
 2143              	.L492:
 2144 026c 019B     		ldr	r3, [sp, #4]
 2145 026e 002B     		cmp	r3, #0
 2146 0270 01D0     		beq	.L438
 2147              		.syntax divided
 2148              	@ 1400 "Middlewares/Third_Party/FreeRTOS/Source/queue.c" 1
 2149 0272 72B6     		 cpsid i 
 2150              	@ 0 "" 2
 2151              		.thumb
 2152              		.syntax unified
 2153              	.L399:
 2154 0274 FEE7     		b	.L399
 2155              	.L438:
 2156 0276 0025     		movs	r5, #0
 2157 0278 D7E6     		b	.L398
 2158              	.L493:
 2159 027a 013B     		subs	r3, r3, #1
 2160 027c A363     		str	r3, [r4, #56]
 2161 027e 2368     		ldr	r3, [r4]
 2162 0280 002B     		cmp	r3, #0
 2163 0282 2FD0     		beq	.L498
 2164              	.L402:
 2165 0284 2369     		ldr	r3, [r4, #16]
 2166 0286 002B     		cmp	r3, #0
 2167 0288 23D1     		bne	.L499
 2168              	.L404:
 2169 028a FFF7FEFF 		bl	vPortExitCritical
 2170 028e 0125     		movs	r5, #1
 2171 0290 6BE7     		b	.L393
 2172              	.L497:
 2173 0292 FFF7FEFF 		bl	vPortEnterCritical
 2174 0296 6068     		ldr	r0, [r4, #4]
 2175 0298 FFF7FEFF 		bl	xTaskPriorityInherit
 2176 029c 0500     		movs	r5, r0
 2177 029e FFF7FEFF 		bl	vPortExitCritical
 2178 02a2 95E7     		b	.L422
 2179              	.L496:
 2180 02a4 FFF7FEFF 		bl	vPortEnterCritical
 2181 02a8 616A     		ldr	r1, [r4, #36]
 2182 02aa 0029     		cmp	r1, #0
 2183 02ac 03D0     		beq	.L436
 2184 02ae 3821     		movs	r1, #56
 2185 02b0 236B     		ldr	r3, [r4, #48]
 2186 02b2 1B68     		ldr	r3, [r3]
 2187 02b4 C91A     		subs	r1, r1, r3
 2188              	.L436:
 2189 02b6 6068     		ldr	r0, [r4, #4]
 2190 02b8 FFF7FEFF 		bl	vTaskPriorityDisinheritAfterTimeout
 2191 02bc 0025     		movs	r5, #0
 2192 02be FFF7FEFF 		bl	vPortExitCritical
 2193 02c2 52E7     		b	.L393
 2194              	.L494:
 2195 02c4 002D     		cmp	r5, #0
 2196 02c6 01D0     		beq	.L408
 2197              		.syntax divided
ARM GAS  /tmp/ccryxT4X.s 			page 39


 2198              	@ 1472 "Middlewares/Third_Party/FreeRTOS/Source/queue.c" 1
 2199 02c8 72B6     		 cpsid i 
 2200              	@ 0 "" 2
 2201              		.thumb
 2202              		.syntax unified
 2203              	.L409:
 2204 02ca FEE7     		b	.L409
 2205              	.L408:
 2206 02cc FFF7FEFF 		bl	vPortExitCritical
 2207 02d0 4BE7     		b	.L393
 2208              	.L499:
 2209 02d2 2000     		movs	r0, r4
 2210 02d4 1030     		adds	r0, r0, #16
 2211 02d6 FFF7FEFF 		bl	xTaskRemoveFromEventList
 2212 02da 0028     		cmp	r0, #0
 2213 02dc D5D0     		beq	.L404
 2214 02de FFF7FEFF 		bl	vPortYield
 2215 02e2 D2E7     		b	.L404
 2216              	.L498:
 2217 02e4 FFF7FEFF 		bl	pvTaskIncrementMutexHeldCount
 2218 02e8 6060     		str	r0, [r4, #4]
 2219 02ea CBE7     		b	.L402
 2221              		.section	.text.xQueueTakeMutexRecursive,"ax",%progbits
 2222              		.align	1
 2223              		.p2align 2,,3
 2224              		.global	xQueueTakeMutexRecursive
 2225              		.syntax unified
 2226              		.code	16
 2227              		.thumb_func
 2228              		.fpu softvfp
 2230              	xQueueTakeMutexRecursive:
 2231              		@ args = 0, pretend = 0, frame = 0
 2232              		@ frame_needed = 0, uses_anonymous_args = 0
 2233 0000 70B5     		push	{r4, r5, r6, lr}
 2234 0002 0400     		movs	r4, r0
 2235 0004 0D00     		movs	r5, r1
 2236 0006 0028     		cmp	r0, #0
 2237 0008 13D0     		beq	.L508
 2238 000a 4668     		ldr	r6, [r0, #4]
 2239 000c FFF7FEFF 		bl	xTaskGetCurrentTaskHandle
 2240 0010 8642     		cmp	r6, r0
 2241 0012 09D0     		beq	.L509
 2242 0014 2900     		movs	r1, r5
 2243 0016 2000     		movs	r0, r4
 2244 0018 FFF7FEFF 		bl	xQueueSemaphoreTake
 2245 001c 0028     		cmp	r0, #0
 2246 001e 07D0     		beq	.L500
 2247 0020 E368     		ldr	r3, [r4, #12]
 2248 0022 0133     		adds	r3, r3, #1
 2249 0024 E360     		str	r3, [r4, #12]
 2250 0026 03E0     		b	.L500
 2251              	.L509:
 2252 0028 0120     		movs	r0, #1
 2253 002a E368     		ldr	r3, [r4, #12]
 2254 002c 0133     		adds	r3, r3, #1
 2255 002e E360     		str	r3, [r4, #12]
 2256              	.L500:
ARM GAS  /tmp/ccryxT4X.s 			page 40


 2257              		@ sp needed
 2258 0030 70BD     		pop	{r4, r5, r6, pc}
 2259              	.L508:
 2260              		.syntax divided
 2261              	@ 634 "Middlewares/Third_Party/FreeRTOS/Source/queue.c" 1
 2262 0032 72B6     		 cpsid i 
 2263              	@ 0 "" 2
 2264              		.thumb
 2265              		.syntax unified
 2266              	.L502:
 2267 0034 FEE7     		b	.L502
 2269 0036 C046     		.section	.text.xQueuePeek,"ax",%progbits
 2270              		.align	1
 2271              		.p2align 2,,3
 2272              		.global	xQueuePeek
 2273              		.syntax unified
 2274              		.code	16
 2275              		.thumb_func
 2276              		.fpu softvfp
 2278              	xQueuePeek:
 2279              		@ args = 0, pretend = 0, frame = 16
 2280              		@ frame_needed = 0, uses_anonymous_args = 0
 2281 0000 F0B5     		push	{r4, r5, r6, r7, lr}
 2282 0002 4746     		mov	r7, r8
 2283 0004 CE46     		mov	lr, r9
 2284 0006 80B5     		push	{r7, lr}
 2285 0008 85B0     		sub	sp, sp, #20
 2286 000a 0400     		movs	r4, r0
 2287 000c 0F00     		movs	r7, r1
 2288 000e 0192     		str	r2, [sp, #4]
 2289 0010 0028     		cmp	r0, #0
 2290 0012 00D1     		bne	.LCB2365
 2291 0014 E8E0     		b	.L650	@long jump
 2292              	.LCB2365:
 2293 0016 0029     		cmp	r1, #0
 2294 0018 00D1     		bne	.LCB2367
 2295 001a 82E0     		b	.L651	@long jump
 2296              	.LCB2367:
 2297              	.L513:
 2298 001c FFF7FEFF 		bl	xTaskGetSchedulerState
 2299 0020 0028     		cmp	r0, #0
 2300 0022 79D0     		beq	.L515
 2301              	.L518:
 2302 0024 FFF7FEFF 		bl	vPortEnterCritical
 2303 0028 A36B     		ldr	r3, [r4, #56]
 2304 002a 002B     		cmp	r3, #0
 2305 002c 00D0     		beq	.LCB2377
 2306 002e 2DE1     		b	.L516	@long jump
 2307              	.LCB2377:
 2308 0030 019B     		ldr	r3, [sp, #4]
 2309 0032 002B     		cmp	r3, #0
 2310 0034 00D1     		bne	.LCB2381
 2311 0036 CFE0     		b	.L521	@long jump
 2312              	.LCB2381:
 2313 0038 02A8     		add	r0, sp, #8
 2314 003a FFF7FEFF 		bl	vTaskInternalSetTimeOutState
 2315 003e 2423     		movs	r3, #36
ARM GAS  /tmp/ccryxT4X.s 			page 41


 2316 0040 9846     		mov	r8, r3
 2317 0042 4425     		movs	r5, #68
 2318 0044 A044     		add	r8, r8, r4
 2319              	.L530:
 2320 0046 FFF7FEFF 		bl	vPortExitCritical
 2321 004a FFF7FEFF 		bl	vTaskSuspendAll
 2322 004e FFF7FEFF 		bl	vPortEnterCritical
 2323 0052 635D     		ldrb	r3, [r4, r5]
 2324 0054 5BB2     		sxtb	r3, r3
 2325 0056 0133     		adds	r3, r3, #1
 2326 0058 01D1     		bne	.L531
 2327 005a 0023     		movs	r3, #0
 2328 005c 6355     		strb	r3, [r4, r5]
 2329              	.L531:
 2330 005e 4522     		movs	r2, #69
 2331 0060 A35C     		ldrb	r3, [r4, r2]
 2332 0062 5BB2     		sxtb	r3, r3
 2333 0064 0133     		adds	r3, r3, #1
 2334 0066 01D1     		bne	.L532
 2335 0068 0023     		movs	r3, #0
 2336 006a A354     		strb	r3, [r4, r2]
 2337              	.L532:
 2338 006c FFF7FEFF 		bl	vPortExitCritical
 2339 0070 01A9     		add	r1, sp, #4
 2340 0072 02A8     		add	r0, sp, #8
 2341 0074 FFF7FEFF 		bl	xTaskCheckForTimeOut
 2342 0078 0028     		cmp	r0, #0
 2343 007a 58D1     		bne	.L533
 2344 007c FFF7FEFF 		bl	vPortEnterCritical
 2345 0080 A36B     		ldr	r3, [r4, #56]
 2346 0082 002B     		cmp	r3, #0
 2347 0084 00D1     		bne	.LCB2422
 2348 0086 B1E0     		b	.L534	@long jump
 2349              	.LCB2422:
 2350 0088 FFF7FEFF 		bl	vPortExitCritical
 2351 008c FFF7FEFF 		bl	vPortEnterCritical
 2352 0090 4523     		movs	r3, #69
 2353 0092 E65C     		ldrb	r6, [r4, r3]
 2354 0094 76B2     		sxtb	r6, r6
 2355 0096 002E     		cmp	r6, #0
 2356 0098 05DC     		bgt	.L535
 2357 009a 13E0     		b	.L538
 2358              	.L539:
 2359 009c 013E     		subs	r6, r6, #1
 2360 009e F3B2     		uxtb	r3, r6
 2361 00a0 76B2     		sxtb	r6, r6
 2362 00a2 002B     		cmp	r3, #0
 2363 00a4 0ED0     		beq	.L538
 2364              	.L535:
 2365 00a6 636A     		ldr	r3, [r4, #36]
 2366 00a8 002B     		cmp	r3, #0
 2367 00aa 0BD0     		beq	.L538
 2368 00ac 4046     		mov	r0, r8
 2369 00ae FFF7FEFF 		bl	xTaskRemoveFromEventList
 2370 00b2 0028     		cmp	r0, #0
 2371 00b4 F2D0     		beq	.L539
 2372 00b6 013E     		subs	r6, r6, #1
ARM GAS  /tmp/ccryxT4X.s 			page 42


 2373 00b8 FFF7FEFF 		bl	vTaskMissedYield
 2374 00bc F3B2     		uxtb	r3, r6
 2375 00be 76B2     		sxtb	r6, r6
 2376 00c0 002B     		cmp	r3, #0
 2377 00c2 F0D1     		bne	.L535
 2378              	.L538:
 2379 00c4 4523     		movs	r3, #69
 2380 00c6 FF22     		movs	r2, #255
 2381 00c8 E254     		strb	r2, [r4, r3]
 2382 00ca FFF7FEFF 		bl	vPortExitCritical
 2383 00ce FFF7FEFF 		bl	vPortEnterCritical
 2384 00d2 1023     		movs	r3, #16
 2385 00d4 9946     		mov	r9, r3
 2386 00d6 665D     		ldrb	r6, [r4, r5]
 2387 00d8 A144     		add	r9, r9, r4
 2388 00da 76B2     		sxtb	r6, r6
 2389 00dc 002E     		cmp	r6, #0
 2390 00de 05DC     		bgt	.L536
 2391 00e0 13E0     		b	.L537
 2392              	.L541:
 2393 00e2 013E     		subs	r6, r6, #1
 2394 00e4 F3B2     		uxtb	r3, r6
 2395 00e6 76B2     		sxtb	r6, r6
 2396 00e8 002B     		cmp	r3, #0
 2397 00ea 0ED0     		beq	.L537
 2398              	.L536:
 2399 00ec 2369     		ldr	r3, [r4, #16]
 2400 00ee 002B     		cmp	r3, #0
 2401 00f0 0BD0     		beq	.L537
 2402 00f2 4846     		mov	r0, r9
 2403 00f4 FFF7FEFF 		bl	xTaskRemoveFromEventList
 2404 00f8 0028     		cmp	r0, #0
 2405 00fa F2D0     		beq	.L541
 2406 00fc 013E     		subs	r6, r6, #1
 2407 00fe FFF7FEFF 		bl	vTaskMissedYield
 2408 0102 F3B2     		uxtb	r3, r6
 2409 0104 76B2     		sxtb	r6, r6
 2410 0106 002B     		cmp	r3, #0
 2411 0108 F0D1     		bne	.L536
 2412              	.L537:
 2413 010a FF23     		movs	r3, #255
 2414 010c 6355     		strb	r3, [r4, r5]
 2415 010e FFF7FEFF 		bl	vPortExitCritical
 2416 0112 FFF7FEFF 		bl	xTaskResumeAll
 2417 0116 56E0     		b	.L649
 2418              	.L515:
 2419 0118 019B     		ldr	r3, [sp, #4]
 2420 011a 002B     		cmp	r3, #0
 2421 011c 82D0     		beq	.L518
 2422              		.syntax divided
 2423              	@ 1616 "Middlewares/Third_Party/FreeRTOS/Source/queue.c" 1
 2424 011e 72B6     		 cpsid i 
 2425              	@ 0 "" 2
 2426              		.thumb
 2427              		.syntax unified
 2428              	.L519:
 2429 0120 FEE7     		b	.L519
ARM GAS  /tmp/ccryxT4X.s 			page 43


 2430              	.L651:
 2431 0122 036C     		ldr	r3, [r0, #64]
 2432 0124 002B     		cmp	r3, #0
 2433 0126 00D1     		bne	.LCB2514
 2434 0128 78E7     		b	.L513	@long jump
 2435              	.LCB2514:
 2436              		.syntax divided
 2437              	@ 1611 "Middlewares/Third_Party/FreeRTOS/Source/queue.c" 1
 2438 012a 72B6     		 cpsid i 
 2439              	@ 0 "" 2
 2440              		.thumb
 2441              		.syntax unified
 2442              	.L514:
 2443 012c FEE7     		b	.L514
 2444              	.L533:
 2445 012e FFF7FEFF 		bl	vPortEnterCritical
 2446 0132 4523     		movs	r3, #69
 2447 0134 E65C     		ldrb	r6, [r4, r3]
 2448 0136 76B2     		sxtb	r6, r6
 2449 0138 002E     		cmp	r6, #0
 2450 013a 05DC     		bgt	.L551
 2451 013c 13E0     		b	.L554
 2452              	.L555:
 2453 013e 013E     		subs	r6, r6, #1
 2454 0140 F3B2     		uxtb	r3, r6
 2455 0142 76B2     		sxtb	r6, r6
 2456 0144 002B     		cmp	r3, #0
 2457 0146 0ED0     		beq	.L554
 2458              	.L551:
 2459 0148 636A     		ldr	r3, [r4, #36]
 2460 014a 002B     		cmp	r3, #0
 2461 014c 0BD0     		beq	.L554
 2462 014e 4046     		mov	r0, r8
 2463 0150 FFF7FEFF 		bl	xTaskRemoveFromEventList
 2464 0154 0028     		cmp	r0, #0
 2465 0156 F2D0     		beq	.L555
 2466 0158 013E     		subs	r6, r6, #1
 2467 015a FFF7FEFF 		bl	vTaskMissedYield
 2468 015e F3B2     		uxtb	r3, r6
 2469 0160 76B2     		sxtb	r6, r6
 2470 0162 002B     		cmp	r3, #0
 2471 0164 F0D1     		bne	.L551
 2472              	.L554:
 2473 0166 4523     		movs	r3, #69
 2474 0168 FF22     		movs	r2, #255
 2475 016a E254     		strb	r2, [r4, r3]
 2476 016c FFF7FEFF 		bl	vPortExitCritical
 2477 0170 FFF7FEFF 		bl	vPortEnterCritical
 2478 0174 1023     		movs	r3, #16
 2479 0176 9946     		mov	r9, r3
 2480 0178 665D     		ldrb	r6, [r4, r5]
 2481 017a A144     		add	r9, r9, r4
 2482 017c 76B2     		sxtb	r6, r6
 2483 017e 002E     		cmp	r6, #0
 2484 0180 05DC     		bgt	.L552
 2485 0182 13E0     		b	.L553
 2486              	.L557:
ARM GAS  /tmp/ccryxT4X.s 			page 44


 2487 0184 013E     		subs	r6, r6, #1
 2488 0186 F3B2     		uxtb	r3, r6
 2489 0188 76B2     		sxtb	r6, r6
 2490 018a 002B     		cmp	r3, #0
 2491 018c 0ED0     		beq	.L553
 2492              	.L552:
 2493 018e 2369     		ldr	r3, [r4, #16]
 2494 0190 002B     		cmp	r3, #0
 2495 0192 0BD0     		beq	.L553
 2496 0194 4846     		mov	r0, r9
 2497 0196 FFF7FEFF 		bl	xTaskRemoveFromEventList
 2498 019a 0028     		cmp	r0, #0
 2499 019c F2D0     		beq	.L557
 2500 019e 013E     		subs	r6, r6, #1
 2501 01a0 FFF7FEFF 		bl	vTaskMissedYield
 2502 01a4 F3B2     		uxtb	r3, r6
 2503 01a6 76B2     		sxtb	r6, r6
 2504 01a8 002B     		cmp	r3, #0
 2505 01aa F0D1     		bne	.L552
 2506              	.L553:
 2507 01ac FF23     		movs	r3, #255
 2508 01ae 6355     		strb	r3, [r4, r5]
 2509 01b0 FFF7FEFF 		bl	vPortExitCritical
 2510 01b4 FFF7FEFF 		bl	xTaskResumeAll
 2511 01b8 FFF7FEFF 		bl	vPortEnterCritical
 2512 01bc A36B     		ldr	r3, [r4, #56]
 2513 01be 002B     		cmp	r3, #0
 2514 01c0 0AD0     		beq	.L521
 2515 01c2 FFF7FEFF 		bl	vPortExitCritical
 2516              	.L649:
 2517 01c6 FFF7FEFF 		bl	vPortEnterCritical
 2518 01ca A36B     		ldr	r3, [r4, #56]
 2519 01cc 002B     		cmp	r3, #0
 2520 01ce 5DD1     		bne	.L516
 2521 01d0 019B     		ldr	r3, [sp, #4]
 2522 01d2 002B     		cmp	r3, #0
 2523 01d4 00D0     		beq	.LCB2608
 2524 01d6 36E7     		b	.L530	@long jump
 2525              	.LCB2608:
 2526              	.L521:
 2527 01d8 FFF7FEFF 		bl	vPortExitCritical
 2528 01dc 0020     		movs	r0, #0
 2529              	.L510:
 2530 01de 05B0     		add	sp, sp, #20
 2531              		@ sp needed
 2532 01e0 0CBC     		pop	{r2, r3}
 2533 01e2 9046     		mov	r8, r2
 2534 01e4 9946     		mov	r9, r3
 2535 01e6 F0BD     		pop	{r4, r5, r6, r7, pc}
 2536              	.L650:
 2537              		.syntax divided
 2538              	@ 1607 "Middlewares/Third_Party/FreeRTOS/Source/queue.c" 1
 2539 01e8 72B6     		 cpsid i 
 2540              	@ 0 "" 2
 2541              		.thumb
 2542              		.syntax unified
 2543              	.L512:
ARM GAS  /tmp/ccryxT4X.s 			page 45


 2544 01ea FEE7     		b	.L512
 2545              	.L534:
 2546 01ec FFF7FEFF 		bl	vPortExitCritical
 2547 01f0 4046     		mov	r0, r8
 2548 01f2 0199     		ldr	r1, [sp, #4]
 2549 01f4 FFF7FEFF 		bl	vTaskPlaceOnEventList
 2550 01f8 FFF7FEFF 		bl	vPortEnterCritical
 2551 01fc 4523     		movs	r3, #69
 2552 01fe E65C     		ldrb	r6, [r4, r3]
 2553 0200 76B2     		sxtb	r6, r6
 2554 0202 002E     		cmp	r6, #0
 2555 0204 05DC     		bgt	.L542
 2556 0206 13E0     		b	.L545
 2557              	.L546:
 2558 0208 013E     		subs	r6, r6, #1
 2559 020a F3B2     		uxtb	r3, r6
 2560 020c 76B2     		sxtb	r6, r6
 2561 020e 002B     		cmp	r3, #0
 2562 0210 0ED0     		beq	.L545
 2563              	.L542:
 2564 0212 636A     		ldr	r3, [r4, #36]
 2565 0214 002B     		cmp	r3, #0
 2566 0216 0BD0     		beq	.L545
 2567 0218 4046     		mov	r0, r8
 2568 021a FFF7FEFF 		bl	xTaskRemoveFromEventList
 2569 021e 0028     		cmp	r0, #0
 2570 0220 F2D0     		beq	.L546
 2571 0222 013E     		subs	r6, r6, #1
 2572 0224 FFF7FEFF 		bl	vTaskMissedYield
 2573 0228 F3B2     		uxtb	r3, r6
 2574 022a 76B2     		sxtb	r6, r6
 2575 022c 002B     		cmp	r3, #0
 2576 022e F0D1     		bne	.L542
 2577              	.L545:
 2578 0230 4523     		movs	r3, #69
 2579 0232 FF22     		movs	r2, #255
 2580 0234 E254     		strb	r2, [r4, r3]
 2581 0236 FFF7FEFF 		bl	vPortExitCritical
 2582 023a FFF7FEFF 		bl	vPortEnterCritical
 2583 023e 1023     		movs	r3, #16
 2584 0240 9946     		mov	r9, r3
 2585 0242 665D     		ldrb	r6, [r4, r5]
 2586 0244 A144     		add	r9, r9, r4
 2587 0246 76B2     		sxtb	r6, r6
 2588 0248 002E     		cmp	r6, #0
 2589 024a 05DC     		bgt	.L543
 2590 024c 13E0     		b	.L544
 2591              	.L549:
 2592 024e 013E     		subs	r6, r6, #1
 2593 0250 F3B2     		uxtb	r3, r6
 2594 0252 76B2     		sxtb	r6, r6
 2595 0254 002B     		cmp	r3, #0
 2596 0256 0ED0     		beq	.L544
 2597              	.L543:
 2598 0258 2369     		ldr	r3, [r4, #16]
 2599 025a 002B     		cmp	r3, #0
 2600 025c 0BD0     		beq	.L544
ARM GAS  /tmp/ccryxT4X.s 			page 46


 2601 025e 4846     		mov	r0, r9
 2602 0260 FFF7FEFF 		bl	xTaskRemoveFromEventList
 2603 0264 0028     		cmp	r0, #0
 2604 0266 F2D0     		beq	.L549
 2605 0268 013E     		subs	r6, r6, #1
 2606 026a FFF7FEFF 		bl	vTaskMissedYield
 2607 026e F3B2     		uxtb	r3, r6
 2608 0270 76B2     		sxtb	r6, r6
 2609 0272 002B     		cmp	r3, #0
 2610 0274 F0D1     		bne	.L543
 2611              	.L544:
 2612 0276 FF23     		movs	r3, #255
 2613 0278 6355     		strb	r3, [r4, r5]
 2614 027a FFF7FEFF 		bl	vPortExitCritical
 2615 027e FFF7FEFF 		bl	xTaskResumeAll
 2616 0282 0028     		cmp	r0, #0
 2617 0284 9FD1     		bne	.L649
 2618 0286 FFF7FEFF 		bl	vPortYield
 2619 028a 9CE7     		b	.L649
 2620              	.L516:
 2621 028c 226C     		ldr	r2, [r4, #64]
 2622 028e E568     		ldr	r5, [r4, #12]
 2623 0290 002A     		cmp	r2, #0
 2624 0292 09D0     		beq	.L523
 2625 0294 6368     		ldr	r3, [r4, #4]
 2626 0296 A918     		adds	r1, r5, r2
 2627 0298 E160     		str	r1, [r4, #12]
 2628 029a 9942     		cmp	r1, r3
 2629 029c 01D3     		bcc	.L524
 2630 029e 2168     		ldr	r1, [r4]
 2631 02a0 E160     		str	r1, [r4, #12]
 2632              	.L524:
 2633 02a2 3800     		movs	r0, r7
 2634 02a4 FFF7FEFF 		bl	memcpy
 2635              	.L523:
 2636 02a8 636A     		ldr	r3, [r4, #36]
 2637 02aa E560     		str	r5, [r4, #12]
 2638 02ac 002B     		cmp	r3, #0
 2639 02ae 03D1     		bne	.L652
 2640              	.L526:
 2641 02b0 FFF7FEFF 		bl	vPortExitCritical
 2642 02b4 0120     		movs	r0, #1
 2643 02b6 92E7     		b	.L510
 2644              	.L652:
 2645 02b8 2000     		movs	r0, r4
 2646 02ba 2430     		adds	r0, r0, #36
 2647 02bc FFF7FEFF 		bl	xTaskRemoveFromEventList
 2648 02c0 0028     		cmp	r0, #0
 2649 02c2 F5D0     		beq	.L526
 2650 02c4 FFF7FEFF 		bl	vPortYield
 2651 02c8 F2E7     		b	.L526
 2653 02ca C046     		.section	.text.xQueueReceiveFromISR,"ax",%progbits
 2654              		.align	1
 2655              		.p2align 2,,3
 2656              		.global	xQueueReceiveFromISR
 2657              		.syntax unified
 2658              		.code	16
ARM GAS  /tmp/ccryxT4X.s 			page 47


 2659              		.thumb_func
 2660              		.fpu softvfp
 2662              	xQueueReceiveFromISR:
 2663              		@ args = 0, pretend = 0, frame = 0
 2664              		@ frame_needed = 0, uses_anonymous_args = 0
 2665 0000 F8B5     		push	{r3, r4, r5, r6, r7, lr}
 2666 0002 CE46     		mov	lr, r9
 2667 0004 4746     		mov	r7, r8
 2668 0006 0400     		movs	r4, r0
 2669 0008 8946     		mov	r9, r1
 2670 000a 1600     		movs	r6, r2
 2671 000c 80B5     		push	{r7, lr}
 2672 000e 0028     		cmp	r0, #0
 2673 0010 16D0     		beq	.L679
 2674 0012 0029     		cmp	r1, #0
 2675 0014 0FD0     		beq	.L680
 2676              	.L656:
 2677 0016 FFF7FEFF 		bl	ulSetInterruptMaskFromISR
 2678 001a A36B     		ldr	r3, [r4, #56]
 2679 001c 0700     		movs	r7, r0
 2680 001e 9846     		mov	r8, r3
 2681 0020 0025     		movs	r5, #0
 2682 0022 002B     		cmp	r3, #0
 2683 0024 0ED1     		bne	.L681
 2684              	.L658:
 2685 0026 3800     		movs	r0, r7
 2686 0028 FFF7FEFF 		bl	vClearInterruptMaskFromISR
 2687              		@ sp needed
 2688 002c 2800     		movs	r0, r5
 2689 002e 0CBC     		pop	{r2, r3}
 2690 0030 9046     		mov	r8, r2
 2691 0032 9946     		mov	r9, r3
 2692 0034 F8BD     		pop	{r3, r4, r5, r6, r7, pc}
 2693              	.L680:
 2694 0036 036C     		ldr	r3, [r0, #64]
 2695 0038 002B     		cmp	r3, #0
 2696 003a ECD0     		beq	.L656
 2697              		.syntax divided
 2698              	@ 1756 "Middlewares/Third_Party/FreeRTOS/Source/queue.c" 1
 2699 003c 72B6     		 cpsid i 
 2700              	@ 0 "" 2
 2701              		.thumb
 2702              		.syntax unified
 2703              	.L657:
 2704 003e FEE7     		b	.L657
 2705              	.L679:
 2706              		.syntax divided
 2707              	@ 1755 "Middlewares/Third_Party/FreeRTOS/Source/queue.c" 1
 2708 0040 72B6     		 cpsid i 
 2709              	@ 0 "" 2
 2710              		.thumb
 2711              		.syntax unified
 2712              	.L655:
 2713 0042 FEE7     		b	.L655
 2714              	.L681:
 2715 0044 4423     		movs	r3, #68
 2716 0046 226C     		ldr	r2, [r4, #64]
ARM GAS  /tmp/ccryxT4X.s 			page 48


 2717 0048 E55C     		ldrb	r5, [r4, r3]
 2718 004a 6DB2     		sxtb	r5, r5
 2719 004c 002A     		cmp	r2, #0
 2720 004e 0AD0     		beq	.L659
 2721 0050 E368     		ldr	r3, [r4, #12]
 2722 0052 9918     		adds	r1, r3, r2
 2723 0054 6368     		ldr	r3, [r4, #4]
 2724 0056 E160     		str	r1, [r4, #12]
 2725 0058 9942     		cmp	r1, r3
 2726 005a 01D3     		bcc	.L660
 2727 005c 2168     		ldr	r1, [r4]
 2728 005e E160     		str	r1, [r4, #12]
 2729              	.L660:
 2730 0060 4846     		mov	r0, r9
 2731 0062 FFF7FEFF 		bl	memcpy
 2732              	.L659:
 2733 0066 4346     		mov	r3, r8
 2734 0068 013B     		subs	r3, r3, #1
 2735 006a A363     		str	r3, [r4, #56]
 2736 006c 6B1C     		adds	r3, r5, #1
 2737 006e 05D0     		beq	.L682
 2738 0070 4423     		movs	r3, #68
 2739 0072 0135     		adds	r5, r5, #1
 2740 0074 6DB2     		sxtb	r5, r5
 2741 0076 E554     		strb	r5, [r4, r3]
 2742              	.L678:
 2743 0078 0125     		movs	r5, #1
 2744 007a D4E7     		b	.L658
 2745              	.L682:
 2746 007c 2369     		ldr	r3, [r4, #16]
 2747 007e 002B     		cmp	r3, #0
 2748 0080 FAD0     		beq	.L678
 2749 0082 2000     		movs	r0, r4
 2750 0084 1030     		adds	r0, r0, #16
 2751 0086 FFF7FEFF 		bl	xTaskRemoveFromEventList
 2752 008a 0028     		cmp	r0, #0
 2753 008c F4D0     		beq	.L678
 2754 008e 002E     		cmp	r6, #0
 2755 0090 F2D0     		beq	.L678
 2756 0092 0123     		movs	r3, #1
 2757 0094 0125     		movs	r5, #1
 2758 0096 3360     		str	r3, [r6]
 2759 0098 C5E7     		b	.L658
 2761 009a C046     		.section	.text.xQueuePeekFromISR,"ax",%progbits
 2762              		.align	1
 2763              		.p2align 2,,3
 2764              		.global	xQueuePeekFromISR
 2765              		.syntax unified
 2766              		.code	16
 2767              		.thumb_func
 2768              		.fpu softvfp
 2770              	xQueuePeekFromISR:
 2771              		@ args = 0, pretend = 0, frame = 0
 2772              		@ frame_needed = 0, uses_anonymous_args = 0
 2773 0000 F8B5     		push	{r3, r4, r5, r6, r7, lr}
 2774 0002 0400     		movs	r4, r0
 2775 0004 0D00     		movs	r5, r1
ARM GAS  /tmp/ccryxT4X.s 			page 49


 2776 0006 0028     		cmp	r0, #0
 2777 0008 0AD0     		beq	.L702
 2778 000a 036C     		ldr	r3, [r0, #64]
 2779 000c 0029     		cmp	r1, #0
 2780 000e 03D0     		beq	.L703
 2781 0010 002B     		cmp	r3, #0
 2782 0012 07D1     		bne	.L689
 2783              	.L687:
 2784              		.syntax divided
 2785              	@ 1849 "Middlewares/Third_Party/FreeRTOS/Source/queue.c" 1
 2786 0014 72B6     		 cpsid i 
 2787              	@ 0 "" 2
 2788              		.thumb
 2789              		.syntax unified
 2790              	.L690:
 2791 0016 FEE7     		b	.L690
 2792              	.L703:
 2793 0018 002B     		cmp	r3, #0
 2794 001a FBD0     		beq	.L687
 2795              		.syntax divided
 2796              	@ 1848 "Middlewares/Third_Party/FreeRTOS/Source/queue.c" 1
 2797 001c 72B6     		 cpsid i 
 2798              	@ 0 "" 2
 2799              		.thumb
 2800              		.syntax unified
 2801              	.L688:
 2802 001e FEE7     		b	.L688
 2803              	.L702:
 2804              		.syntax divided
 2805              	@ 1847 "Middlewares/Third_Party/FreeRTOS/Source/queue.c" 1
 2806 0020 72B6     		 cpsid i 
 2807              	@ 0 "" 2
 2808              		.thumb
 2809              		.syntax unified
 2810              	.L685:
 2811 0022 FEE7     		b	.L685
 2812              	.L689:
 2813 0024 FFF7FEFF 		bl	ulSetInterruptMaskFromISR
 2814 0028 A36B     		ldr	r3, [r4, #56]
 2815 002a 0600     		movs	r6, r0
 2816 002c 0027     		movs	r7, #0
 2817 002e 002B     		cmp	r3, #0
 2818 0030 04D1     		bne	.L704
 2819              	.L691:
 2820 0032 3000     		movs	r0, r6
 2821 0034 FFF7FEFF 		bl	vClearInterruptMaskFromISR
 2822              		@ sp needed
 2823 0038 3800     		movs	r0, r7
 2824 003a F8BD     		pop	{r3, r4, r5, r6, r7, pc}
 2825              	.L704:
 2826 003c 226C     		ldr	r2, [r4, #64]
 2827 003e E768     		ldr	r7, [r4, #12]
 2828 0040 002A     		cmp	r2, #0
 2829 0042 09D0     		beq	.L692
 2830 0044 6368     		ldr	r3, [r4, #4]
 2831 0046 B918     		adds	r1, r7, r2
 2832 0048 E160     		str	r1, [r4, #12]
ARM GAS  /tmp/ccryxT4X.s 			page 50


 2833 004a 9942     		cmp	r1, r3
 2834 004c 01D3     		bcc	.L693
 2835 004e 2168     		ldr	r1, [r4]
 2836 0050 E160     		str	r1, [r4, #12]
 2837              	.L693:
 2838 0052 2800     		movs	r0, r5
 2839 0054 FFF7FEFF 		bl	memcpy
 2840              	.L692:
 2841 0058 E760     		str	r7, [r4, #12]
 2842 005a 0127     		movs	r7, #1
 2843 005c E9E7     		b	.L691
 2845 005e C046     		.section	.text.uxQueueMessagesWaiting,"ax",%progbits
 2846              		.align	1
 2847              		.p2align 2,,3
 2848              		.global	uxQueueMessagesWaiting
 2849              		.syntax unified
 2850              		.code	16
 2851              		.thumb_func
 2852              		.fpu softvfp
 2854              	uxQueueMessagesWaiting:
 2855              		@ args = 0, pretend = 0, frame = 0
 2856              		@ frame_needed = 0, uses_anonymous_args = 0
 2857 0000 10B5     		push	{r4, lr}
 2858 0002 041E     		subs	r4, r0, #0
 2859 0004 06D0     		beq	.L708
 2860 0006 FFF7FEFF 		bl	vPortEnterCritical
 2861 000a A46B     		ldr	r4, [r4, #56]
 2862              		@ sp needed
 2863 000c FFF7FEFF 		bl	vPortExitCritical
 2864 0010 2000     		movs	r0, r4
 2865 0012 10BD     		pop	{r4, pc}
 2866              	.L708:
 2867              		.syntax divided
 2868              	@ 1898 "Middlewares/Third_Party/FreeRTOS/Source/queue.c" 1
 2869 0014 72B6     		 cpsid i 
 2870              	@ 0 "" 2
 2871              		.thumb
 2872              		.syntax unified
 2873              	.L707:
 2874 0016 FEE7     		b	.L707
 2876              		.section	.text.uxQueueSpacesAvailable,"ax",%progbits
 2877              		.align	1
 2878              		.p2align 2,,3
 2879              		.global	uxQueueSpacesAvailable
 2880              		.syntax unified
 2881              		.code	16
 2882              		.thumb_func
 2883              		.fpu softvfp
 2885              	uxQueueSpacesAvailable:
 2886              		@ args = 0, pretend = 0, frame = 0
 2887              		@ frame_needed = 0, uses_anonymous_args = 0
 2888 0000 10B5     		push	{r4, lr}
 2889 0002 041E     		subs	r4, r0, #0
 2890 0004 08D0     		beq	.L712
 2891 0006 FFF7FEFF 		bl	vPortEnterCritical
 2892 000a A36B     		ldr	r3, [r4, #56]
 2893 000c E46B     		ldr	r4, [r4, #60]
ARM GAS  /tmp/ccryxT4X.s 			page 51


 2894              		@ sp needed
 2895 000e E41A     		subs	r4, r4, r3
 2896 0010 FFF7FEFF 		bl	vPortExitCritical
 2897 0014 2000     		movs	r0, r4
 2898 0016 10BD     		pop	{r4, pc}
 2899              	.L712:
 2900              		.syntax divided
 2901              	@ 1916 "Middlewares/Third_Party/FreeRTOS/Source/queue.c" 1
 2902 0018 72B6     		 cpsid i 
 2903              	@ 0 "" 2
 2904              		.thumb
 2905              		.syntax unified
 2906              	.L711:
 2907 001a FEE7     		b	.L711
 2909              		.section	.text.uxQueueMessagesWaitingFromISR,"ax",%progbits
 2910              		.align	1
 2911              		.p2align 2,,3
 2912              		.global	uxQueueMessagesWaitingFromISR
 2913              		.syntax unified
 2914              		.code	16
 2915              		.thumb_func
 2916              		.fpu softvfp
 2918              	uxQueueMessagesWaitingFromISR:
 2919              		@ args = 0, pretend = 0, frame = 0
 2920              		@ frame_needed = 0, uses_anonymous_args = 0
 2921              		@ link register save eliminated.
 2922 0000 0028     		cmp	r0, #0
 2923 0002 01D0     		beq	.L716
 2924 0004 806B     		ldr	r0, [r0, #56]
 2925              		@ sp needed
 2926 0006 7047     		bx	lr
 2927              	.L716:
 2928              		.syntax divided
 2929              	@ 1932 "Middlewares/Third_Party/FreeRTOS/Source/queue.c" 1
 2930 0008 72B6     		 cpsid i 
 2931              	@ 0 "" 2
 2932              		.thumb
 2933              		.syntax unified
 2934              	.L715:
 2935 000a FEE7     		b	.L715
 2937              		.section	.text.vQueueDelete,"ax",%progbits
 2938              		.align	1
 2939              		.p2align 2,,3
 2940              		.global	vQueueDelete
 2941              		.syntax unified
 2942              		.code	16
 2943              		.thumb_func
 2944              		.fpu softvfp
 2946              	vQueueDelete:
 2947              		@ args = 0, pretend = 0, frame = 0
 2948              		@ frame_needed = 0, uses_anonymous_args = 0
 2949 0000 10B5     		push	{r4, lr}
 2950 0002 0028     		cmp	r0, #0
 2951 0004 1DD0     		beq	.L730
 2952 0006 1C4B     		ldr	r3, .L733
 2953 0008 5A68     		ldr	r2, [r3, #4]
 2954 000a 9042     		cmp	r0, r2
ARM GAS  /tmp/ccryxT4X.s 			page 52


 2955 000c 2DD0     		beq	.L723
 2956 000e DA68     		ldr	r2, [r3, #12]
 2957 0010 9042     		cmp	r0, r2
 2958 0012 2ED0     		beq	.L724
 2959 0014 5A69     		ldr	r2, [r3, #20]
 2960 0016 9042     		cmp	r0, r2
 2961 0018 29D0     		beq	.L725
 2962 001a DA69     		ldr	r2, [r3, #28]
 2963 001c 9042     		cmp	r0, r2
 2964 001e 20D0     		beq	.L726
 2965 0020 5A6A     		ldr	r2, [r3, #36]
 2966 0022 9042     		cmp	r0, r2
 2967 0024 1BD0     		beq	.L727
 2968 0026 DA6A     		ldr	r2, [r3, #44]
 2969 0028 9042     		cmp	r0, r2
 2970 002a 1CD0     		beq	.L728
 2971 002c 5A6B     		ldr	r2, [r3, #52]
 2972 002e 9042     		cmp	r0, r2
 2973 0030 0CD0     		beq	.L729
 2974 0032 DA6B     		ldr	r2, [r3, #60]
 2975 0034 9042     		cmp	r0, r2
 2976 0036 10D0     		beq	.L731
 2977              	.L721:
 2978 0038 4623     		movs	r3, #70
 2979 003a C35C     		ldrb	r3, [r0, r3]
 2980 003c 002B     		cmp	r3, #0
 2981 003e 02D0     		beq	.L732
 2982              	.L717:
 2983              		@ sp needed
 2984 0040 10BD     		pop	{r4, pc}
 2985              	.L730:
 2986              		.syntax divided
 2987              	@ 1944 "Middlewares/Third_Party/FreeRTOS/Source/queue.c" 1
 2988 0042 72B6     		 cpsid i 
 2989              	@ 0 "" 2
 2990              		.thumb
 2991              		.syntax unified
 2992              	.L719:
 2993 0044 FEE7     		b	.L719
 2994              	.L732:
 2995 0046 FFF7FEFF 		bl	vPortFree
 2996 004a F9E7     		b	.L717
 2997              	.L729:
 2998 004c 0622     		movs	r2, #6
 2999              	.L720:
 3000 004e 0021     		movs	r1, #0
 3001 0050 D200     		lsls	r2, r2, #3
 3002 0052 9950     		str	r1, [r3, r2]
 3003 0054 9B18     		adds	r3, r3, r2
 3004 0056 5960     		str	r1, [r3, #4]
 3005 0058 EEE7     		b	.L721
 3006              	.L731:
 3007 005a 0722     		movs	r2, #7
 3008 005c F7E7     		b	.L720
 3009              	.L727:
 3010 005e 0422     		movs	r2, #4
 3011 0060 F5E7     		b	.L720
ARM GAS  /tmp/ccryxT4X.s 			page 53


 3012              	.L726:
 3013 0062 0322     		movs	r2, #3
 3014 0064 F3E7     		b	.L720
 3015              	.L728:
 3016 0066 0522     		movs	r2, #5
 3017 0068 F1E7     		b	.L720
 3018              	.L723:
 3019 006a 0022     		movs	r2, #0
 3020 006c EFE7     		b	.L720
 3021              	.L725:
 3022 006e 0222     		movs	r2, #2
 3023 0070 EDE7     		b	.L720
 3024              	.L724:
 3025 0072 0122     		movs	r2, #1
 3026 0074 EBE7     		b	.L720
 3027              	.L734:
 3028 0076 C046     		.align	2
 3029              	.L733:
 3030 0078 00000000 		.word	xQueueRegistry
 3032              		.section	.text.uxQueueGetQueueNumber,"ax",%progbits
 3033              		.align	1
 3034              		.p2align 2,,3
 3035              		.global	uxQueueGetQueueNumber
 3036              		.syntax unified
 3037              		.code	16
 3038              		.thumb_func
 3039              		.fpu softvfp
 3041              	uxQueueGetQueueNumber:
 3042              		@ args = 0, pretend = 0, frame = 0
 3043              		@ frame_needed = 0, uses_anonymous_args = 0
 3044              		@ link register save eliminated.
 3045 0000 806C     		ldr	r0, [r0, #72]
 3046              		@ sp needed
 3047 0002 7047     		bx	lr
 3049              		.section	.text.vQueueSetQueueNumber,"ax",%progbits
 3050              		.align	1
 3051              		.p2align 2,,3
 3052              		.global	vQueueSetQueueNumber
 3053              		.syntax unified
 3054              		.code	16
 3055              		.thumb_func
 3056              		.fpu softvfp
 3058              	vQueueSetQueueNumber:
 3059              		@ args = 0, pretend = 0, frame = 0
 3060              		@ frame_needed = 0, uses_anonymous_args = 0
 3061              		@ link register save eliminated.
 3062              		@ sp needed
 3063 0000 8164     		str	r1, [r0, #72]
 3064 0002 7047     		bx	lr
 3066              		.section	.text.ucQueueGetQueueType,"ax",%progbits
 3067              		.align	1
 3068              		.p2align 2,,3
 3069              		.global	ucQueueGetQueueType
 3070              		.syntax unified
 3071              		.code	16
 3072              		.thumb_func
 3073              		.fpu softvfp
ARM GAS  /tmp/ccryxT4X.s 			page 54


 3075              	ucQueueGetQueueType:
 3076              		@ args = 0, pretend = 0, frame = 0
 3077              		@ frame_needed = 0, uses_anonymous_args = 0
 3078              		@ link register save eliminated.
 3079 0000 4C23     		movs	r3, #76
 3080              		@ sp needed
 3081 0002 C05C     		ldrb	r0, [r0, r3]
 3082 0004 7047     		bx	lr
 3084 0006 C046     		.section	.text.xQueueIsQueueEmptyFromISR,"ax",%progbits
 3085              		.align	1
 3086              		.p2align 2,,3
 3087              		.global	xQueueIsQueueEmptyFromISR
 3088              		.syntax unified
 3089              		.code	16
 3090              		.thumb_func
 3091              		.fpu softvfp
 3093              	xQueueIsQueueEmptyFromISR:
 3094              		@ args = 0, pretend = 0, frame = 0
 3095              		@ frame_needed = 0, uses_anonymous_args = 0
 3096              		@ link register save eliminated.
 3097 0000 0028     		cmp	r0, #0
 3098 0002 03D0     		beq	.L741
 3099 0004 806B     		ldr	r0, [r0, #56]
 3100              		@ sp needed
 3101 0006 4342     		rsbs	r3, r0, #0
 3102 0008 5841     		adcs	r0, r0, r3
 3103 000a 7047     		bx	lr
 3104              	.L741:
 3105              		.syntax divided
 3106              	@ 2281 "Middlewares/Third_Party/FreeRTOS/Source/queue.c" 1
 3107 000c 72B6     		 cpsid i 
 3108              	@ 0 "" 2
 3109              		.thumb
 3110              		.syntax unified
 3111              	.L740:
 3112 000e FEE7     		b	.L740
 3114              		.section	.text.xQueueIsQueueFullFromISR,"ax",%progbits
 3115              		.align	1
 3116              		.p2align 2,,3
 3117              		.global	xQueueIsQueueFullFromISR
 3118              		.syntax unified
 3119              		.code	16
 3120              		.thumb_func
 3121              		.fpu softvfp
 3123              	xQueueIsQueueFullFromISR:
 3124              		@ args = 0, pretend = 0, frame = 0
 3125              		@ frame_needed = 0, uses_anonymous_args = 0
 3126              		@ link register save eliminated.
 3127 0000 0028     		cmp	r0, #0
 3128 0002 05D0     		beq	.L745
 3129 0004 826B     		ldr	r2, [r0, #56]
 3130 0006 C06B     		ldr	r0, [r0, #60]
 3131              		@ sp needed
 3132 0008 801A     		subs	r0, r0, r2
 3133 000a 4342     		rsbs	r3, r0, #0
 3134 000c 5841     		adcs	r0, r0, r3
 3135 000e 7047     		bx	lr
ARM GAS  /tmp/ccryxT4X.s 			page 55


 3136              	.L745:
 3137              		.syntax divided
 3138              	@ 2320 "Middlewares/Third_Party/FreeRTOS/Source/queue.c" 1
 3139 0010 72B6     		 cpsid i 
 3140              	@ 0 "" 2
 3141              		.thumb
 3142              		.syntax unified
 3143              	.L744:
 3144 0012 FEE7     		b	.L744
 3146              		.section	.text.vQueueAddToRegistry,"ax",%progbits
 3147              		.align	1
 3148              		.p2align 2,,3
 3149              		.global	vQueueAddToRegistry
 3150              		.syntax unified
 3151              		.code	16
 3152              		.thumb_func
 3153              		.fpu softvfp
 3155              	vQueueAddToRegistry:
 3156              		@ args = 0, pretend = 0, frame = 0
 3157              		@ frame_needed = 0, uses_anonymous_args = 0
 3158              		@ link register save eliminated.
 3159 0000 164B     		ldr	r3, .L757
 3160 0002 1A68     		ldr	r2, [r3]
 3161 0004 002A     		cmp	r2, #0
 3162 0006 15D0     		beq	.L749
 3163 0008 9A68     		ldr	r2, [r3, #8]
 3164 000a 002A     		cmp	r2, #0
 3165 000c 18D0     		beq	.L750
 3166 000e 1A69     		ldr	r2, [r3, #16]
 3167 0010 002A     		cmp	r2, #0
 3168 0012 17D0     		beq	.L751
 3169 0014 9A69     		ldr	r2, [r3, #24]
 3170 0016 002A     		cmp	r2, #0
 3171 0018 16D0     		beq	.L752
 3172 001a 1A6A     		ldr	r2, [r3, #32]
 3173 001c 002A     		cmp	r2, #0
 3174 001e 15D0     		beq	.L753
 3175 0020 9A6A     		ldr	r2, [r3, #40]
 3176 0022 002A     		cmp	r2, #0
 3177 0024 14D0     		beq	.L754
 3178 0026 1A6B     		ldr	r2, [r3, #48]
 3179 0028 002A     		cmp	r2, #0
 3180 002a 13D0     		beq	.L755
 3181 002c 9A6B     		ldr	r2, [r3, #56]
 3182 002e 002A     		cmp	r2, #0
 3183 0030 12D0     		beq	.L756
 3184              	.L746:
 3185              		@ sp needed
 3186 0032 7047     		bx	lr
 3187              	.L749:
 3188 0034 0022     		movs	r2, #0
 3189              	.L747:
 3190 0036 D200     		lsls	r2, r2, #3
 3191 0038 9950     		str	r1, [r3, r2]
 3192 003a 9B18     		adds	r3, r3, r2
 3193 003c 5860     		str	r0, [r3, #4]
 3194 003e F8E7     		b	.L746
ARM GAS  /tmp/ccryxT4X.s 			page 56


 3195              	.L750:
 3196 0040 0122     		movs	r2, #1
 3197 0042 F8E7     		b	.L747
 3198              	.L751:
 3199 0044 0222     		movs	r2, #2
 3200 0046 F6E7     		b	.L747
 3201              	.L752:
 3202 0048 0322     		movs	r2, #3
 3203 004a F4E7     		b	.L747
 3204              	.L753:
 3205 004c 0422     		movs	r2, #4
 3206 004e F2E7     		b	.L747
 3207              	.L754:
 3208 0050 0522     		movs	r2, #5
 3209 0052 F0E7     		b	.L747
 3210              	.L755:
 3211 0054 0622     		movs	r2, #6
 3212 0056 EEE7     		b	.L747
 3213              	.L756:
 3214 0058 0732     		adds	r2, r2, #7
 3215 005a ECE7     		b	.L747
 3216              	.L758:
 3217              		.align	2
 3218              	.L757:
 3219 005c 00000000 		.word	xQueueRegistry
 3221              		.section	.text.pcQueueGetName,"ax",%progbits
 3222              		.align	1
 3223              		.p2align 2,,3
 3224              		.global	pcQueueGetName
 3225              		.syntax unified
 3226              		.code	16
 3227              		.thumb_func
 3228              		.fpu softvfp
 3230              	pcQueueGetName:
 3231              		@ args = 0, pretend = 0, frame = 0
 3232              		@ frame_needed = 0, uses_anonymous_args = 0
 3233              		@ link register save eliminated.
 3234 0000 164A     		ldr	r2, .L771
 3235 0002 0300     		movs	r3, r0
 3236 0004 5168     		ldr	r1, [r2, #4]
 3237 0006 8842     		cmp	r0, r1
 3238 0008 16D0     		beq	.L762
 3239 000a D168     		ldr	r1, [r2, #12]
 3240 000c 8842     		cmp	r0, r1
 3241 000e 17D0     		beq	.L763
 3242 0010 5169     		ldr	r1, [r2, #20]
 3243 0012 8842     		cmp	r0, r1
 3244 0014 16D0     		beq	.L764
 3245 0016 D169     		ldr	r1, [r2, #28]
 3246 0018 8842     		cmp	r0, r1
 3247 001a 15D0     		beq	.L765
 3248 001c 516A     		ldr	r1, [r2, #36]
 3249 001e 8842     		cmp	r0, r1
 3250 0020 14D0     		beq	.L766
 3251 0022 D16A     		ldr	r1, [r2, #44]
 3252 0024 8842     		cmp	r0, r1
 3253 0026 13D0     		beq	.L767
ARM GAS  /tmp/ccryxT4X.s 			page 57


 3254 0028 516B     		ldr	r1, [r2, #52]
 3255 002a 8842     		cmp	r0, r1
 3256 002c 12D0     		beq	.L768
 3257 002e D16B     		ldr	r1, [r2, #60]
 3258 0030 0020     		movs	r0, #0
 3259 0032 9942     		cmp	r1, r3
 3260 0034 10D0     		beq	.L770
 3261              	.L759:
 3262              		@ sp needed
 3263 0036 7047     		bx	lr
 3264              	.L762:
 3265 0038 0023     		movs	r3, #0
 3266              	.L760:
 3267 003a DB00     		lsls	r3, r3, #3
 3268 003c D058     		ldr	r0, [r2, r3]
 3269 003e FAE7     		b	.L759
 3270              	.L763:
 3271 0040 0123     		movs	r3, #1
 3272 0042 FAE7     		b	.L760
 3273              	.L764:
 3274 0044 0223     		movs	r3, #2
 3275 0046 F8E7     		b	.L760
 3276              	.L765:
 3277 0048 0323     		movs	r3, #3
 3278 004a F6E7     		b	.L760
 3279              	.L766:
 3280 004c 0423     		movs	r3, #4
 3281 004e F4E7     		b	.L760
 3282              	.L767:
 3283 0050 0523     		movs	r3, #5
 3284 0052 F2E7     		b	.L760
 3285              	.L768:
 3286 0054 0623     		movs	r3, #6
 3287 0056 F0E7     		b	.L760
 3288              	.L770:
 3289 0058 0723     		movs	r3, #7
 3290 005a EEE7     		b	.L760
 3291              	.L772:
 3292              		.align	2
 3293              	.L771:
 3294 005c 00000000 		.word	xQueueRegistry
 3296              		.section	.text.vQueueUnregisterQueue,"ax",%progbits
 3297              		.align	1
 3298              		.p2align 2,,3
 3299              		.global	vQueueUnregisterQueue
 3300              		.syntax unified
 3301              		.code	16
 3302              		.thumb_func
 3303              		.fpu softvfp
 3305              	vQueueUnregisterQueue:
 3306              		@ args = 0, pretend = 0, frame = 0
 3307              		@ frame_needed = 0, uses_anonymous_args = 0
 3308              		@ link register save eliminated.
 3309 0000 174B     		ldr	r3, .L784
 3310 0002 5A68     		ldr	r2, [r3, #4]
 3311 0004 9042     		cmp	r0, r2
 3312 0006 15D0     		beq	.L776
ARM GAS  /tmp/ccryxT4X.s 			page 58


 3313 0008 DA68     		ldr	r2, [r3, #12]
 3314 000a 9042     		cmp	r0, r2
 3315 000c 19D0     		beq	.L777
 3316 000e 5A69     		ldr	r2, [r3, #20]
 3317 0010 9042     		cmp	r0, r2
 3318 0012 18D0     		beq	.L778
 3319 0014 DA69     		ldr	r2, [r3, #28]
 3320 0016 9042     		cmp	r0, r2
 3321 0018 17D0     		beq	.L779
 3322 001a 5A6A     		ldr	r2, [r3, #36]
 3323 001c 9042     		cmp	r0, r2
 3324 001e 16D0     		beq	.L780
 3325 0020 DA6A     		ldr	r2, [r3, #44]
 3326 0022 9042     		cmp	r0, r2
 3327 0024 15D0     		beq	.L781
 3328 0026 5A6B     		ldr	r2, [r3, #52]
 3329 0028 9042     		cmp	r0, r2
 3330 002a 14D0     		beq	.L782
 3331 002c DA6B     		ldr	r2, [r3, #60]
 3332 002e 8242     		cmp	r2, r0
 3333 0030 13D0     		beq	.L783
 3334              	.L773:
 3335              		@ sp needed
 3336 0032 7047     		bx	lr
 3337              	.L776:
 3338 0034 0022     		movs	r2, #0
 3339              	.L774:
 3340 0036 0021     		movs	r1, #0
 3341 0038 D200     		lsls	r2, r2, #3
 3342 003a 9950     		str	r1, [r3, r2]
 3343 003c 9B18     		adds	r3, r3, r2
 3344 003e 5960     		str	r1, [r3, #4]
 3345 0040 F7E7     		b	.L773
 3346              	.L777:
 3347 0042 0122     		movs	r2, #1
 3348 0044 F7E7     		b	.L774
 3349              	.L778:
 3350 0046 0222     		movs	r2, #2
 3351 0048 F5E7     		b	.L774
 3352              	.L779:
 3353 004a 0322     		movs	r2, #3
 3354 004c F3E7     		b	.L774
 3355              	.L780:
 3356 004e 0422     		movs	r2, #4
 3357 0050 F1E7     		b	.L774
 3358              	.L781:
 3359 0052 0522     		movs	r2, #5
 3360 0054 EFE7     		b	.L774
 3361              	.L782:
 3362 0056 0622     		movs	r2, #6
 3363 0058 EDE7     		b	.L774
 3364              	.L783:
 3365 005a 0722     		movs	r2, #7
 3366 005c EBE7     		b	.L774
 3367              	.L785:
 3368 005e C046     		.align	2
 3369              	.L784:
ARM GAS  /tmp/ccryxT4X.s 			page 59


 3370 0060 00000000 		.word	xQueueRegistry
 3372              		.section	.text.vQueueWaitForMessageRestricted,"ax",%progbits
 3373              		.align	1
 3374              		.p2align 2,,3
 3375              		.global	vQueueWaitForMessageRestricted
 3376              		.syntax unified
 3377              		.code	16
 3378              		.thumb_func
 3379              		.fpu softvfp
 3381              	vQueueWaitForMessageRestricted:
 3382              		@ args = 0, pretend = 0, frame = 0
 3383              		@ frame_needed = 0, uses_anonymous_args = 0
 3384 0000 70B5     		push	{r4, r5, r6, lr}
 3385 0002 0400     		movs	r4, r0
 3386 0004 1600     		movs	r6, r2
 3387 0006 0D00     		movs	r5, r1
 3388 0008 FFF7FEFF 		bl	vPortEnterCritical
 3389 000c 4422     		movs	r2, #68
 3390 000e A35C     		ldrb	r3, [r4, r2]
 3391 0010 5BB2     		sxtb	r3, r3
 3392 0012 0133     		adds	r3, r3, #1
 3393 0014 01D1     		bne	.L787
 3394 0016 0023     		movs	r3, #0
 3395 0018 A354     		strb	r3, [r4, r2]
 3396              	.L787:
 3397 001a 4522     		movs	r2, #69
 3398 001c A35C     		ldrb	r3, [r4, r2]
 3399 001e 5BB2     		sxtb	r3, r3
 3400 0020 0133     		adds	r3, r3, #1
 3401 0022 01D1     		bne	.L788
 3402 0024 0023     		movs	r3, #0
 3403 0026 A354     		strb	r3, [r4, r2]
 3404              	.L788:
 3405 0028 FFF7FEFF 		bl	vPortExitCritical
 3406 002c A36B     		ldr	r3, [r4, #56]
 3407 002e 002B     		cmp	r3, #0
 3408 0030 46D0     		beq	.L810
 3409              	.L789:
 3410 0032 FFF7FEFF 		bl	vPortEnterCritical
 3411 0036 4523     		movs	r3, #69
 3412 0038 E55C     		ldrb	r5, [r4, r3]
 3413 003a 6DB2     		sxtb	r5, r5
 3414 003c 002D     		cmp	r5, #0
 3415 003e 16DD     		ble	.L790
 3416 0040 2600     		movs	r6, r4
 3417 0042 2436     		adds	r6, r6, #36
 3418 0044 04E0     		b	.L792
 3419              	.L791:
 3420 0046 013D     		subs	r5, r5, #1
 3421 0048 EBB2     		uxtb	r3, r5
 3422 004a 6DB2     		sxtb	r5, r5
 3423 004c 002B     		cmp	r3, #0
 3424 004e 0ED0     		beq	.L790
 3425              	.L792:
 3426 0050 636A     		ldr	r3, [r4, #36]
 3427 0052 002B     		cmp	r3, #0
 3428 0054 0BD0     		beq	.L790
ARM GAS  /tmp/ccryxT4X.s 			page 60


 3429 0056 3000     		movs	r0, r6
 3430 0058 FFF7FEFF 		bl	xTaskRemoveFromEventList
 3431 005c 0028     		cmp	r0, #0
 3432 005e F2D0     		beq	.L791
 3433 0060 013D     		subs	r5, r5, #1
 3434 0062 FFF7FEFF 		bl	vTaskMissedYield
 3435 0066 EBB2     		uxtb	r3, r5
 3436 0068 6DB2     		sxtb	r5, r5
 3437 006a 002B     		cmp	r3, #0
 3438 006c F0D1     		bne	.L792
 3439              	.L790:
 3440 006e 4523     		movs	r3, #69
 3441 0070 FF22     		movs	r2, #255
 3442 0072 E254     		strb	r2, [r4, r3]
 3443 0074 FFF7FEFF 		bl	vPortExitCritical
 3444 0078 FFF7FEFF 		bl	vPortEnterCritical
 3445 007c 4423     		movs	r3, #68
 3446 007e E55C     		ldrb	r5, [r4, r3]
 3447 0080 6DB2     		sxtb	r5, r5
 3448 0082 002D     		cmp	r5, #0
 3449 0084 16DD     		ble	.L793
 3450 0086 2600     		movs	r6, r4
 3451 0088 1036     		adds	r6, r6, #16
 3452 008a 04E0     		b	.L795
 3453              	.L794:
 3454 008c 013D     		subs	r5, r5, #1
 3455 008e EBB2     		uxtb	r3, r5
 3456 0090 6DB2     		sxtb	r5, r5
 3457 0092 002B     		cmp	r3, #0
 3458 0094 0ED0     		beq	.L793
 3459              	.L795:
 3460 0096 2369     		ldr	r3, [r4, #16]
 3461 0098 002B     		cmp	r3, #0
 3462 009a 0BD0     		beq	.L793
 3463 009c 3000     		movs	r0, r6
 3464 009e FFF7FEFF 		bl	xTaskRemoveFromEventList
 3465 00a2 0028     		cmp	r0, #0
 3466 00a4 F2D0     		beq	.L794
 3467 00a6 013D     		subs	r5, r5, #1
 3468 00a8 FFF7FEFF 		bl	vTaskMissedYield
 3469 00ac EBB2     		uxtb	r3, r5
 3470 00ae 6DB2     		sxtb	r5, r5
 3471 00b0 002B     		cmp	r3, #0
 3472 00b2 F0D1     		bne	.L795
 3473              	.L793:
 3474 00b4 4423     		movs	r3, #68
 3475 00b6 FF22     		movs	r2, #255
 3476 00b8 E254     		strb	r2, [r4, r3]
 3477 00ba FFF7FEFF 		bl	vPortExitCritical
 3478              		@ sp needed
 3479 00be 70BD     		pop	{r4, r5, r6, pc}
 3480              	.L810:
 3481 00c0 2000     		movs	r0, r4
 3482 00c2 3200     		movs	r2, r6
 3483 00c4 2900     		movs	r1, r5
 3484 00c6 2430     		adds	r0, r0, #36
 3485 00c8 FFF7FEFF 		bl	vTaskPlaceOnEventListRestricted
ARM GAS  /tmp/ccryxT4X.s 			page 61


 3486 00cc B1E7     		b	.L789
 3488              		.comm	xQueueRegistry,64,4
 3489 00ce C046     		.ident	"GCC: (15:9-2019-q4-0ubuntu1) 9.2.1 20191025 (release) [ARM/arm-9-branch revision 277599]"
ARM GAS  /tmp/ccryxT4X.s 			page 62

