ARM GAS  /tmp/ccSQ6G3A.s 			page 1


   1              		.cpu cortex-m0
   2              		.eabi_attribute 20, 1
   3              		.eabi_attribute 21, 1
   4              		.eabi_attribute 23, 3
   5              		.eabi_attribute 24, 1
   6              		.eabi_attribute 25, 1
   7              		.eabi_attribute 26, 1
   8              		.eabi_attribute 30, 2
   9              		.eabi_attribute 34, 0
  10              		.eabi_attribute 18, 4
  11              		.file	"tasks.c"
  12              		.text
  13              		.section	.text.prvAddNewTaskToReadyList,"ax",%progbits
  14              		.align	1
  15              		.p2align 2,,3
  16              		.arch armv6s-m
  17              		.syntax unified
  18              		.code	16
  19              		.thumb_func
  20              		.fpu softvfp
  22              	prvAddNewTaskToReadyList:
  23              		@ args = 0, pretend = 0, frame = 0
  24              		@ frame_needed = 0, uses_anonymous_args = 0
  25 0000 F0B5     		push	{r4, r5, r6, r7, lr}
  26 0002 C646     		mov	lr, r8
  27 0004 00B5     		push	{lr}
  28 0006 0400     		movs	r4, r0
  29 0008 FFF7FEFF 		bl	vPortEnterCritical
  30 000c 324A     		ldr	r2, .L19
  31 000e 334E     		ldr	r6, .L19+4
  32 0010 1368     		ldr	r3, [r2]
  33 0012 0133     		adds	r3, r3, #1
  34 0014 1360     		str	r3, [r2]
  35 0016 3368     		ldr	r3, [r6]
  36 0018 002B     		cmp	r3, #0
  37 001a 2BD0     		beq	.L17
  38 001c 304F     		ldr	r7, .L19+8
  39 001e 3B68     		ldr	r3, [r7]
  40 0020 002B     		cmp	r3, #0
  41 0022 1FD0     		beq	.L6
  42 0024 E26A     		ldr	r2, [r4, #44]
  43 0026 2F4D     		ldr	r5, .L19+12
  44              	.L4:
  45 0028 2F49     		ldr	r1, .L19+16
  46 002a 0B68     		ldr	r3, [r1]
  47 002c 0133     		adds	r3, r3, #1
  48 002e 0B60     		str	r3, [r1]
  49 0030 6364     		str	r3, [r4, #68]
  50 0032 2E4B     		ldr	r3, .L19+20
  51 0034 1968     		ldr	r1, [r3]
  52 0036 9142     		cmp	r1, r2
  53 0038 00D2     		bcs	.L7
  54 003a 1A60     		str	r2, [r3]
  55              	.L7:
  56 003c 9000     		lsls	r0, r2, #2
  57 003e 8018     		adds	r0, r0, r2
  58 0040 8000     		lsls	r0, r0, #2
ARM GAS  /tmp/ccSQ6G3A.s 			page 2


  59 0042 211D     		adds	r1, r4, #4
  60 0044 2818     		adds	r0, r5, r0
  61 0046 FFF7FEFF 		bl	vListInsertEnd
  62 004a FFF7FEFF 		bl	vPortExitCritical
  63 004e 3B68     		ldr	r3, [r7]
  64 0050 002B     		cmp	r3, #0
  65 0052 04D0     		beq	.L1
  66 0054 3368     		ldr	r3, [r6]
  67 0056 DA6A     		ldr	r2, [r3, #44]
  68 0058 E36A     		ldr	r3, [r4, #44]
  69 005a 9A42     		cmp	r2, r3
  70 005c 12D3     		bcc	.L18
  71              	.L1:
  72              		@ sp needed
  73 005e 04BC     		pop	{r2}
  74 0060 9046     		mov	r8, r2
  75 0062 F0BD     		pop	{r4, r5, r6, r7, pc}
  76              	.L6:
  77 0064 3368     		ldr	r3, [r6]
  78 0066 E26A     		ldr	r2, [r4, #44]
  79 0068 DB6A     		ldr	r3, [r3, #44]
  80 006a 9342     		cmp	r3, r2
  81 006c 00D8     		bhi	.L15
  82 006e 3460     		str	r4, [r6]
  83              	.L15:
  84 0070 1C4D     		ldr	r5, .L19+12
  85 0072 D9E7     		b	.L4
  86              	.L17:
  87 0074 3460     		str	r4, [r6]
  88 0076 1368     		ldr	r3, [r2]
  89 0078 012B     		cmp	r3, #1
  90 007a 06D0     		beq	.L3
  91 007c E26A     		ldr	r2, [r4, #44]
  92 007e 194D     		ldr	r5, .L19+12
  93 0080 174F     		ldr	r7, .L19+8
  94 0082 D1E7     		b	.L4
  95              	.L18:
  96 0084 FFF7FEFF 		bl	vPortYield
  97 0088 E9E7     		b	.L1
  98              	.L3:
  99 008a 8C23     		movs	r3, #140
 100 008c 154D     		ldr	r5, .L19+12
 101 008e DB00     		lsls	r3, r3, #3
 102 0090 9846     		mov	r8, r3
 103 0092 2F00     		movs	r7, r5
 104 0094 A844     		add	r8, r8, r5
 105              	.L5:
 106 0096 3800     		movs	r0, r7
 107 0098 1437     		adds	r7, r7, #20
 108 009a FFF7FEFF 		bl	vListInitialise
 109 009e B845     		cmp	r8, r7
 110 00a0 F9D1     		bne	.L5
 111 00a2 134B     		ldr	r3, .L19+24
 112 00a4 9846     		mov	r8, r3
 113 00a6 1800     		movs	r0, r3
 114 00a8 FFF7FEFF 		bl	vListInitialise
 115 00ac 114F     		ldr	r7, .L19+28
ARM GAS  /tmp/ccSQ6G3A.s 			page 3


 116 00ae 3800     		movs	r0, r7
 117 00b0 FFF7FEFF 		bl	vListInitialise
 118 00b4 1048     		ldr	r0, .L19+32
 119 00b6 FFF7FEFF 		bl	vListInitialise
 120 00ba 1048     		ldr	r0, .L19+36
 121 00bc FFF7FEFF 		bl	vListInitialise
 122 00c0 0F48     		ldr	r0, .L19+40
 123 00c2 FFF7FEFF 		bl	vListInitialise
 124 00c6 4246     		mov	r2, r8
 125 00c8 0E4B     		ldr	r3, .L19+44
 126 00ca 1A60     		str	r2, [r3]
 127 00cc 0E4B     		ldr	r3, .L19+48
 128 00ce E26A     		ldr	r2, [r4, #44]
 129 00d0 1F60     		str	r7, [r3]
 130 00d2 034F     		ldr	r7, .L19+8
 131 00d4 A8E7     		b	.L4
 132              	.L20:
 133 00d6 C046     		.align	2
 134              	.L19:
 135 00d8 00000000 		.word	.LANCHOR0
 136 00dc 00000000 		.word	.LANCHOR1
 137 00e0 00000000 		.word	.LANCHOR9
 138 00e4 00000000 		.word	pxReadyTasksLists
 139 00e8 00000000 		.word	.LANCHOR10
 140 00ec 00000000 		.word	.LANCHOR11
 141 00f0 00000000 		.word	.LANCHOR2
 142 00f4 00000000 		.word	.LANCHOR3
 143 00f8 00000000 		.word	.LANCHOR4
 144 00fc 00000000 		.word	.LANCHOR5
 145 0100 00000000 		.word	.LANCHOR6
 146 0104 00000000 		.word	.LANCHOR7
 147 0108 00000000 		.word	.LANCHOR8
 149              		.section	.text.prvIdleTask,"ax",%progbits
 150              		.align	1
 151              		.p2align 2,,3
 152              		.syntax unified
 153              		.code	16
 154              		.thumb_func
 155              		.fpu softvfp
 157              	prvIdleTask:
 158              		@ Volatile: function does not return.
 159              		@ args = 0, pretend = 0, frame = 0
 160              		@ frame_needed = 0, uses_anonymous_args = 0
 161 0000 F8B5     		push	{r3, r4, r5, r6, r7, lr}
 162 0002 4746     		mov	r7, r8
 163 0004 CE46     		mov	lr, r9
 164 0006 1C4B     		ldr	r3, .L41
 165 0008 80B5     		push	{r7, lr}
 166 000a 9946     		mov	r9, r3
 167 000c 1B4B     		ldr	r3, .L41+4
 168 000e 5927     		movs	r7, #89
 169 0010 9846     		mov	r8, r3
 170 0012 1B4D     		ldr	r5, .L41+8
 171 0014 1B4E     		ldr	r6, .L41+12
 172              	.L28:
 173 0016 2B68     		ldr	r3, [r5]
 174 0018 002B     		cmp	r3, #0
ARM GAS  /tmp/ccSQ6G3A.s 			page 4


 175 001a 21D0     		beq	.L22
 176              	.L40:
 177 001c FFF7FEFF 		bl	vPortEnterCritical
 178 0020 4B46     		mov	r3, r9
 179 0022 DB68     		ldr	r3, [r3, #12]
 180 0024 DC68     		ldr	r4, [r3, #12]
 181 0026 201D     		adds	r0, r4, #4
 182 0028 FFF7FEFF 		bl	uxListRemove
 183 002c 3368     		ldr	r3, [r6]
 184 002e 013B     		subs	r3, r3, #1
 185 0030 3360     		str	r3, [r6]
 186 0032 2B68     		ldr	r3, [r5]
 187 0034 013B     		subs	r3, r3, #1
 188 0036 2B60     		str	r3, [r5]
 189 0038 FFF7FEFF 		bl	vPortExitCritical
 190 003c E35D     		ldrb	r3, [r4, r7]
 191 003e 002B     		cmp	r3, #0
 192 0040 05D0     		beq	.L38
 193 0042 012B     		cmp	r3, #1
 194 0044 13D0     		beq	.L39
 195 0046 022B     		cmp	r3, #2
 196 0048 E5D0     		beq	.L28
 197              		.syntax divided
 198              	@ 3714 "Middlewares/Third_Party/FreeRTOS/Source/tasks.c" 1
 199 004a 72B6     		 cpsid i 
 200              	@ 0 "" 2
 201              		.thumb
 202              		.syntax unified
 203              	.L26:
 204 004c FEE7     		b	.L26
 205              	.L38:
 206 004e 206B     		ldr	r0, [r4, #48]
 207 0050 FFF7FEFF 		bl	vPortFree
 208 0054 2000     		movs	r0, r4
 209 0056 FFF7FEFF 		bl	vPortFree
 210 005a 2B68     		ldr	r3, [r5]
 211 005c 002B     		cmp	r3, #0
 212 005e DDD1     		bne	.L40
 213              	.L22:
 214 0060 4346     		mov	r3, r8
 215 0062 1B68     		ldr	r3, [r3]
 216 0064 012B     		cmp	r3, #1
 217 0066 D6D9     		bls	.L28
 218 0068 FFF7FEFF 		bl	vPortYield
 219 006c D3E7     		b	.L28
 220              	.L39:
 221 006e 2000     		movs	r0, r4
 222 0070 FFF7FEFF 		bl	vPortFree
 223 0074 CFE7     		b	.L28
 224              	.L42:
 225 0076 C046     		.align	2
 226              	.L41:
 227 0078 00000000 		.word	.LANCHOR5
 228 007c 00000000 		.word	pxReadyTasksLists
 229 0080 00000000 		.word	.LANCHOR12
 230 0084 00000000 		.word	.LANCHOR0
 232              		.section	.text.xTaskCreateStatic,"ax",%progbits
ARM GAS  /tmp/ccSQ6G3A.s 			page 5


 233              		.align	1
 234              		.p2align 2,,3
 235              		.global	xTaskCreateStatic
 236              		.syntax unified
 237              		.code	16
 238              		.thumb_func
 239              		.fpu softvfp
 241              	xTaskCreateStatic:
 242              		@ args = 12, pretend = 0, frame = 8
 243              		@ frame_needed = 0, uses_anonymous_args = 0
 244 0000 F0B5     		push	{r4, r5, r6, r7, lr}
 245 0002 4746     		mov	r7, r8
 246 0004 CE46     		mov	lr, r9
 247 0006 80B5     		push	{r7, lr}
 248 0008 83B0     		sub	sp, sp, #12
 249 000a 0700     		movs	r7, r0
 250 000c 0B98     		ldr	r0, [sp, #44]
 251 000e 0D00     		movs	r5, r1
 252 0010 1600     		movs	r6, r2
 253 0012 9846     		mov	r8, r3
 254 0014 0C9C     		ldr	r4, [sp, #48]
 255 0016 0028     		cmp	r0, #0
 256 0018 0AD0     		beq	.L98
 257 001a 002C     		cmp	r4, #0
 258 001c 06D0     		beq	.L99
 259 001e 5C23     		movs	r3, #92
 260 0020 0193     		str	r3, [sp, #4]
 261 0022 019B     		ldr	r3, [sp, #4]
 262 0024 5C2B     		cmp	r3, #92
 263 0026 05D0     		beq	.L48
 264              		.syntax divided
 265              	@ 595 "Middlewares/Third_Party/FreeRTOS/Source/tasks.c" 1
 266 0028 72B6     		 cpsid i 
 267              	@ 0 "" 2
 268              		.thumb
 269              		.syntax unified
 270              	.L49:
 271 002a FEE7     		b	.L49
 272              	.L99:
 273              		.syntax divided
 274              	@ 587 "Middlewares/Third_Party/FreeRTOS/Source/tasks.c" 1
 275 002c 72B6     		 cpsid i 
 276              	@ 0 "" 2
 277              		.thumb
 278              		.syntax unified
 279              	.L47:
 280 002e FEE7     		b	.L47
 281              	.L98:
 282              		.syntax divided
 283              	@ 586 "Middlewares/Third_Party/FreeRTOS/Source/tasks.c" 1
 284 0030 72B6     		 cpsid i 
 285              	@ 0 "" 2
 286              		.thumb
 287              		.syntax unified
 288              	.L45:
 289 0032 FEE7     		b	.L45
 290              	.L48:
ARM GAS  /tmp/ccSQ6G3A.s 			page 6


 291 0034 5923     		movs	r3, #89
 292 0036 0222     		movs	r2, #2
 293 0038 B600     		lsls	r6, r6, #2
 294 003a 2063     		str	r0, [r4, #48]
 295 003c A521     		movs	r1, #165
 296 003e E254     		strb	r2, [r4, r3]
 297 0040 3200     		movs	r2, r6
 298 0042 FFF7FEFF 		bl	memset
 299 0046 236B     		ldr	r3, [r4, #48]
 300 0048 043E     		subs	r6, r6, #4
 301 004a 9C46     		mov	ip, r3
 302 004c 0723     		movs	r3, #7
 303 004e 2A78     		ldrb	r2, [r5]
 304 0050 6644     		add	r6, r6, ip
 305 0052 9E43     		bics	r6, r3
 306 0054 2D33     		adds	r3, r3, #45
 307 0056 E254     		strb	r2, [r4, r3]
 308 0058 2B78     		ldrb	r3, [r5]
 309 005a 002B     		cmp	r3, #0
 310 005c 56D0     		beq	.L51
 311 005e 3523     		movs	r3, #53
 312 0060 6A78     		ldrb	r2, [r5, #1]
 313 0062 E254     		strb	r2, [r4, r3]
 314 0064 6B78     		ldrb	r3, [r5, #1]
 315 0066 002B     		cmp	r3, #0
 316 0068 50D0     		beq	.L51
 317 006a 3623     		movs	r3, #54
 318 006c AA78     		ldrb	r2, [r5, #2]
 319 006e E254     		strb	r2, [r4, r3]
 320 0070 AB78     		ldrb	r3, [r5, #2]
 321 0072 002B     		cmp	r3, #0
 322 0074 4AD0     		beq	.L51
 323 0076 3723     		movs	r3, #55
 324 0078 EA78     		ldrb	r2, [r5, #3]
 325 007a E254     		strb	r2, [r4, r3]
 326 007c EB78     		ldrb	r3, [r5, #3]
 327 007e 002B     		cmp	r3, #0
 328 0080 44D0     		beq	.L51
 329 0082 3823     		movs	r3, #56
 330 0084 2A79     		ldrb	r2, [r5, #4]
 331 0086 E254     		strb	r2, [r4, r3]
 332 0088 2B79     		ldrb	r3, [r5, #4]
 333 008a 002B     		cmp	r3, #0
 334 008c 3ED0     		beq	.L51
 335 008e 3923     		movs	r3, #57
 336 0090 6A79     		ldrb	r2, [r5, #5]
 337 0092 E254     		strb	r2, [r4, r3]
 338 0094 6B79     		ldrb	r3, [r5, #5]
 339 0096 002B     		cmp	r3, #0
 340 0098 38D0     		beq	.L51
 341 009a 3A23     		movs	r3, #58
 342 009c AA79     		ldrb	r2, [r5, #6]
 343 009e E254     		strb	r2, [r4, r3]
 344 00a0 AB79     		ldrb	r3, [r5, #6]
 345 00a2 002B     		cmp	r3, #0
 346 00a4 32D0     		beq	.L51
 347 00a6 3B23     		movs	r3, #59
ARM GAS  /tmp/ccSQ6G3A.s 			page 7


 348 00a8 EA79     		ldrb	r2, [r5, #7]
 349 00aa E254     		strb	r2, [r4, r3]
 350 00ac EB79     		ldrb	r3, [r5, #7]
 351 00ae 002B     		cmp	r3, #0
 352 00b0 2CD0     		beq	.L51
 353 00b2 3C23     		movs	r3, #60
 354 00b4 2A7A     		ldrb	r2, [r5, #8]
 355 00b6 E254     		strb	r2, [r4, r3]
 356 00b8 2B7A     		ldrb	r3, [r5, #8]
 357 00ba 002B     		cmp	r3, #0
 358 00bc 26D0     		beq	.L51
 359 00be 3D23     		movs	r3, #61
 360 00c0 6A7A     		ldrb	r2, [r5, #9]
 361 00c2 E254     		strb	r2, [r4, r3]
 362 00c4 6B7A     		ldrb	r3, [r5, #9]
 363 00c6 002B     		cmp	r3, #0
 364 00c8 20D0     		beq	.L51
 365 00ca 3E23     		movs	r3, #62
 366 00cc AA7A     		ldrb	r2, [r5, #10]
 367 00ce E254     		strb	r2, [r4, r3]
 368 00d0 AB7A     		ldrb	r3, [r5, #10]
 369 00d2 002B     		cmp	r3, #0
 370 00d4 1AD0     		beq	.L51
 371 00d6 3F23     		movs	r3, #63
 372 00d8 EA7A     		ldrb	r2, [r5, #11]
 373 00da E254     		strb	r2, [r4, r3]
 374 00dc EB7A     		ldrb	r3, [r5, #11]
 375 00de 002B     		cmp	r3, #0
 376 00e0 14D0     		beq	.L51
 377 00e2 4023     		movs	r3, #64
 378 00e4 2A7B     		ldrb	r2, [r5, #12]
 379 00e6 E254     		strb	r2, [r4, r3]
 380 00e8 2B7B     		ldrb	r3, [r5, #12]
 381 00ea 002B     		cmp	r3, #0
 382 00ec 0ED0     		beq	.L51
 383 00ee 4123     		movs	r3, #65
 384 00f0 6A7B     		ldrb	r2, [r5, #13]
 385 00f2 E254     		strb	r2, [r4, r3]
 386 00f4 6B7B     		ldrb	r3, [r5, #13]
 387 00f6 002B     		cmp	r3, #0
 388 00f8 08D0     		beq	.L51
 389 00fa 4223     		movs	r3, #66
 390 00fc AA7B     		ldrb	r2, [r5, #14]
 391 00fe E254     		strb	r2, [r4, r3]
 392 0100 AB7B     		ldrb	r3, [r5, #14]
 393 0102 002B     		cmp	r3, #0
 394 0104 02D0     		beq	.L51
 395 0106 4323     		movs	r3, #67
 396 0108 EA7B     		ldrb	r2, [r5, #15]
 397 010a E254     		strb	r2, [r4, r3]
 398              	.L51:
 399 010c 4323     		movs	r3, #67
 400 010e 0022     		movs	r2, #0
 401 0110 0A9D     		ldr	r5, [sp, #40]
 402 0112 E254     		strb	r2, [r4, r3]
 403 0114 372D     		cmp	r5, #55
 404 0116 24D8     		bhi	.L100
ARM GAS  /tmp/ccSQ6G3A.s 			page 8


 405              	.L52:
 406 0118 0023     		movs	r3, #0
 407 011a E562     		str	r5, [r4, #44]
 408 011c 2365     		str	r3, [r4, #80]
 409 011e E564     		str	r5, [r4, #76]
 410 0120 201D     		adds	r0, r4, #4
 411 0122 9946     		mov	r9, r3
 412 0124 FFF7FEFF 		bl	vListInitialiseItem
 413 0128 2000     		movs	r0, r4
 414 012a 1830     		adds	r0, r0, #24
 415 012c FFF7FEFF 		bl	vListInitialiseItem
 416 0130 3823     		movs	r3, #56
 417 0132 5D1B     		subs	r5, r3, r5
 418 0134 4B46     		mov	r3, r9
 419 0136 4A46     		mov	r2, r9
 420 0138 6365     		str	r3, [r4, #84]
 421 013a 5833     		adds	r3, r3, #88
 422 013c 3900     		movs	r1, r7
 423 013e 2461     		str	r4, [r4, #16]
 424 0140 A561     		str	r5, [r4, #24]
 425 0142 6462     		str	r4, [r4, #36]
 426 0144 3000     		movs	r0, r6
 427 0146 E254     		strb	r2, [r4, r3]
 428 0148 4246     		mov	r2, r8
 429 014a FFF7FEFF 		bl	pxPortInitialiseStack
 430 014e 2060     		str	r0, [r4]
 431 0150 2000     		movs	r0, r4
 432 0152 FFF7FEFF 		bl	prvAddNewTaskToReadyList
 433 0156 2000     		movs	r0, r4
 434 0158 03B0     		add	sp, sp, #12
 435              		@ sp needed
 436 015a 0CBC     		pop	{r2, r3}
 437 015c 9046     		mov	r8, r2
 438 015e 9946     		mov	r9, r3
 439 0160 F0BD     		pop	{r4, r5, r6, r7, pc}
 440              	.L100:
 441 0162 3725     		movs	r5, #55
 442 0164 D8E7     		b	.L52
 444 0166 C046     		.section	.text.xTaskCreate,"ax",%progbits
 445              		.align	1
 446              		.p2align 2,,3
 447              		.global	xTaskCreate
 448              		.syntax unified
 449              		.code	16
 450              		.thumb_func
 451              		.fpu softvfp
 453              	xTaskCreate:
 454              		@ args = 8, pretend = 0, frame = 0
 455              		@ frame_needed = 0, uses_anonymous_args = 0
 456 0000 F0B5     		push	{r4, r5, r6, r7, lr}
 457 0002 4F46     		mov	r7, r9
 458 0004 4646     		mov	r6, r8
 459 0006 D646     		mov	lr, r10
 460 0008 C0B5     		push	{r6, r7, lr}
 461 000a 9600     		lsls	r6, r2, #2
 462 000c 8046     		mov	r8, r0
 463 000e 3000     		movs	r0, r6
ARM GAS  /tmp/ccSQ6G3A.s 			page 9


 464 0010 0D00     		movs	r5, r1
 465 0012 9946     		mov	r9, r3
 466 0014 FFF7FEFF 		bl	pvPortMalloc
 467 0018 071E     		subs	r7, r0, #0
 468 001a 00D1     		bne	.LCB457
 469 001c 9FE0     		b	.L108	@long jump
 470              	.LCB457:
 471 001e 5C20     		movs	r0, #92
 472 0020 FFF7FEFF 		bl	pvPortMalloc
 473 0024 041E     		subs	r4, r0, #0
 474 0026 00D1     		bne	.LCB462
 475 0028 9EE0     		b	.L103	@long jump
 476              	.LCB462:
 477 002a 5923     		movs	r3, #89
 478 002c 0022     		movs	r2, #0
 479 002e 0763     		str	r7, [r0, #48]
 480 0030 A521     		movs	r1, #165
 481 0032 C254     		strb	r2, [r0, r3]
 482 0034 3200     		movs	r2, r6
 483 0036 3800     		movs	r0, r7
 484 0038 FFF7FEFF 		bl	memset
 485 003c 3423     		movs	r3, #52
 486 003e 2A78     		ldrb	r2, [r5]
 487 0040 276B     		ldr	r7, [r4, #48]
 488 0042 E254     		strb	r2, [r4, r3]
 489 0044 2B78     		ldrb	r3, [r5]
 490 0046 002B     		cmp	r3, #0
 491 0048 56D0     		beq	.L105
 492 004a 3523     		movs	r3, #53
 493 004c 6A78     		ldrb	r2, [r5, #1]
 494 004e E254     		strb	r2, [r4, r3]
 495 0050 6B78     		ldrb	r3, [r5, #1]
 496 0052 002B     		cmp	r3, #0
 497 0054 50D0     		beq	.L105
 498 0056 3623     		movs	r3, #54
 499 0058 AA78     		ldrb	r2, [r5, #2]
 500 005a E254     		strb	r2, [r4, r3]
 501 005c AB78     		ldrb	r3, [r5, #2]
 502 005e 002B     		cmp	r3, #0
 503 0060 4AD0     		beq	.L105
 504 0062 3723     		movs	r3, #55
 505 0064 EA78     		ldrb	r2, [r5, #3]
 506 0066 E254     		strb	r2, [r4, r3]
 507 0068 EB78     		ldrb	r3, [r5, #3]
 508 006a 002B     		cmp	r3, #0
 509 006c 44D0     		beq	.L105
 510 006e 3823     		movs	r3, #56
 511 0070 2A79     		ldrb	r2, [r5, #4]
 512 0072 E254     		strb	r2, [r4, r3]
 513 0074 2B79     		ldrb	r3, [r5, #4]
 514 0076 002B     		cmp	r3, #0
 515 0078 3ED0     		beq	.L105
 516 007a 3923     		movs	r3, #57
 517 007c 6A79     		ldrb	r2, [r5, #5]
 518 007e E254     		strb	r2, [r4, r3]
 519 0080 6B79     		ldrb	r3, [r5, #5]
 520 0082 002B     		cmp	r3, #0
ARM GAS  /tmp/ccSQ6G3A.s 			page 10


 521 0084 38D0     		beq	.L105
 522 0086 3A23     		movs	r3, #58
 523 0088 AA79     		ldrb	r2, [r5, #6]
 524 008a E254     		strb	r2, [r4, r3]
 525 008c AB79     		ldrb	r3, [r5, #6]
 526 008e 002B     		cmp	r3, #0
 527 0090 32D0     		beq	.L105
 528 0092 3B23     		movs	r3, #59
 529 0094 EA79     		ldrb	r2, [r5, #7]
 530 0096 E254     		strb	r2, [r4, r3]
 531 0098 EB79     		ldrb	r3, [r5, #7]
 532 009a 002B     		cmp	r3, #0
 533 009c 2CD0     		beq	.L105
 534 009e 3C23     		movs	r3, #60
 535 00a0 2A7A     		ldrb	r2, [r5, #8]
 536 00a2 E254     		strb	r2, [r4, r3]
 537 00a4 2B7A     		ldrb	r3, [r5, #8]
 538 00a6 002B     		cmp	r3, #0
 539 00a8 26D0     		beq	.L105
 540 00aa 3D23     		movs	r3, #61
 541 00ac 6A7A     		ldrb	r2, [r5, #9]
 542 00ae E254     		strb	r2, [r4, r3]
 543 00b0 6B7A     		ldrb	r3, [r5, #9]
 544 00b2 002B     		cmp	r3, #0
 545 00b4 20D0     		beq	.L105
 546 00b6 3E23     		movs	r3, #62
 547 00b8 AA7A     		ldrb	r2, [r5, #10]
 548 00ba E254     		strb	r2, [r4, r3]
 549 00bc AB7A     		ldrb	r3, [r5, #10]
 550 00be 002B     		cmp	r3, #0
 551 00c0 1AD0     		beq	.L105
 552 00c2 3F23     		movs	r3, #63
 553 00c4 EA7A     		ldrb	r2, [r5, #11]
 554 00c6 E254     		strb	r2, [r4, r3]
 555 00c8 EB7A     		ldrb	r3, [r5, #11]
 556 00ca 002B     		cmp	r3, #0
 557 00cc 14D0     		beq	.L105
 558 00ce 4023     		movs	r3, #64
 559 00d0 2A7B     		ldrb	r2, [r5, #12]
 560 00d2 E254     		strb	r2, [r4, r3]
 561 00d4 2B7B     		ldrb	r3, [r5, #12]
 562 00d6 002B     		cmp	r3, #0
 563 00d8 0ED0     		beq	.L105
 564 00da 4123     		movs	r3, #65
 565 00dc 6A7B     		ldrb	r2, [r5, #13]
 566 00de E254     		strb	r2, [r4, r3]
 567 00e0 6B7B     		ldrb	r3, [r5, #13]
 568 00e2 002B     		cmp	r3, #0
 569 00e4 08D0     		beq	.L105
 570 00e6 4223     		movs	r3, #66
 571 00e8 AA7B     		ldrb	r2, [r5, #14]
 572 00ea E254     		strb	r2, [r4, r3]
 573 00ec AB7B     		ldrb	r3, [r5, #14]
 574 00ee 002B     		cmp	r3, #0
 575 00f0 02D0     		beq	.L105
 576 00f2 4323     		movs	r3, #67
 577 00f4 EA7B     		ldrb	r2, [r5, #15]
ARM GAS  /tmp/ccSQ6G3A.s 			page 11


 578 00f6 E254     		strb	r2, [r4, r3]
 579              	.L105:
 580 00f8 4323     		movs	r3, #67
 581 00fa 0022     		movs	r2, #0
 582 00fc 089D     		ldr	r5, [sp, #32]
 583 00fe E254     		strb	r2, [r4, r3]
 584 0100 372D     		cmp	r5, #55
 585 0102 2FD8     		bhi	.L157
 586              	.L106:
 587 0104 0023     		movs	r3, #0
 588 0106 E562     		str	r5, [r4, #44]
 589 0108 2365     		str	r3, [r4, #80]
 590 010a E564     		str	r5, [r4, #76]
 591 010c 201D     		adds	r0, r4, #4
 592 010e 9A46     		mov	r10, r3
 593 0110 FFF7FEFF 		bl	vListInitialiseItem
 594 0114 2000     		movs	r0, r4
 595 0116 1830     		adds	r0, r0, #24
 596 0118 FFF7FEFF 		bl	vListInitialiseItem
 597 011c 3823     		movs	r3, #56
 598 011e 043E     		subs	r6, r6, #4
 599 0120 5D1B     		subs	r5, r3, r5
 600 0122 5346     		mov	r3, r10
 601 0124 5246     		mov	r2, r10
 602 0126 BE19     		adds	r6, r7, r6
 603 0128 3000     		movs	r0, r6
 604 012a 6365     		str	r3, [r4, #84]
 605 012c 5833     		adds	r3, r3, #88
 606 012e 2461     		str	r4, [r4, #16]
 607 0130 A561     		str	r5, [r4, #24]
 608 0132 6462     		str	r4, [r4, #36]
 609 0134 E254     		strb	r2, [r4, r3]
 610 0136 513B     		subs	r3, r3, #81
 611 0138 9843     		bics	r0, r3
 612 013a 4A46     		mov	r2, r9
 613 013c 4146     		mov	r1, r8
 614 013e FFF7FEFF 		bl	pxPortInitialiseStack
 615 0142 099B     		ldr	r3, [sp, #36]
 616 0144 2060     		str	r0, [r4]
 617 0146 002B     		cmp	r3, #0
 618 0148 00D0     		beq	.L107
 619 014a 1C60     		str	r4, [r3]
 620              	.L107:
 621 014c 2000     		movs	r0, r4
 622 014e FFF7FEFF 		bl	prvAddNewTaskToReadyList
 623 0152 0120     		movs	r0, #1
 624              	.L101:
 625              		@ sp needed
 626 0154 1CBC     		pop	{r2, r3, r4}
 627 0156 9046     		mov	r8, r2
 628 0158 9946     		mov	r9, r3
 629 015a A246     		mov	r10, r4
 630 015c F0BD     		pop	{r4, r5, r6, r7, pc}
 631              	.L108:
 632 015e 0120     		movs	r0, #1
 633 0160 4042     		rsbs	r0, r0, #0
 634 0162 F7E7     		b	.L101
ARM GAS  /tmp/ccSQ6G3A.s 			page 12


 635              	.L157:
 636 0164 3725     		movs	r5, #55
 637 0166 CDE7     		b	.L106
 638              	.L103:
 639 0168 3800     		movs	r0, r7
 640 016a FFF7FEFF 		bl	vPortFree
 641 016e 0120     		movs	r0, #1
 642 0170 4042     		rsbs	r0, r0, #0
 643 0172 EFE7     		b	.L101
 645              		.section	.text.vTaskDelete,"ax",%progbits
 646              		.align	1
 647              		.p2align 2,,3
 648              		.global	vTaskDelete
 649              		.syntax unified
 650              		.code	16
 651              		.thumb_func
 652              		.fpu softvfp
 654              	vTaskDelete:
 655              		@ args = 0, pretend = 0, frame = 0
 656              		@ frame_needed = 0, uses_anonymous_args = 0
 657 0000 70B5     		push	{r4, r5, r6, lr}
 658 0002 0400     		movs	r4, r0
 659 0004 FFF7FEFF 		bl	vPortEnterCritical
 660 0008 2C4D     		ldr	r5, .L186
 661 000a 002C     		cmp	r4, #0
 662 000c 40D0     		beq	.L181
 663              	.L159:
 664 000e 261D     		adds	r6, r4, #4
 665 0010 3000     		movs	r0, r6
 666 0012 FFF7FEFF 		bl	uxListRemove
 667 0016 A36A     		ldr	r3, [r4, #40]
 668 0018 002B     		cmp	r3, #0
 669 001a 03D0     		beq	.L160
 670 001c 2000     		movs	r0, r4
 671 001e 1830     		adds	r0, r0, #24
 672 0020 FFF7FEFF 		bl	uxListRemove
 673              	.L160:
 674 0024 264A     		ldr	r2, .L186+4
 675 0026 1368     		ldr	r3, [r2]
 676 0028 0133     		adds	r3, r3, #1
 677 002a 1360     		str	r3, [r2]
 678 002c 2B68     		ldr	r3, [r5]
 679 002e A342     		cmp	r3, r4
 680 0030 25D0     		beq	.L182
 681 0032 244A     		ldr	r2, .L186+8
 682 0034 1368     		ldr	r3, [r2]
 683 0036 013B     		subs	r3, r3, #1
 684 0038 1360     		str	r3, [r2]
 685 003a 5923     		movs	r3, #89
 686 003c E35C     		ldrb	r3, [r4, r3]
 687 003e 002B     		cmp	r3, #0
 688 0040 05D0     		beq	.L183
 689 0042 012B     		cmp	r3, #1
 690 0044 2DD0     		beq	.L184
 691 0046 022B     		cmp	r3, #2
 692 0048 07D0     		beq	.L164
 693              		.syntax divided
ARM GAS  /tmp/ccSQ6G3A.s 			page 13


 694              	@ 3714 "Middlewares/Third_Party/FreeRTOS/Source/tasks.c" 1
 695 004a 72B6     		 cpsid i 
 696              	@ 0 "" 2
 697              		.thumb
 698              		.syntax unified
 699              	.L166:
 700 004c FEE7     		b	.L166
 701              	.L183:
 702 004e 206B     		ldr	r0, [r4, #48]
 703 0050 FFF7FEFF 		bl	vPortFree
 704 0054 2000     		movs	r0, r4
 705 0056 FFF7FEFF 		bl	vPortFree
 706              	.L164:
 707 005a 1B4B     		ldr	r3, .L186+12
 708 005c 1A68     		ldr	r2, [r3]
 709 005e 1268     		ldr	r2, [r2]
 710 0060 002A     		cmp	r2, #0
 711 0062 17D1     		bne	.L167
 712 0064 194B     		ldr	r3, .L186+16
 713 0066 013A     		subs	r2, r2, #1
 714 0068 1A60     		str	r2, [r3]
 715              	.L162:
 716 006a FFF7FEFF 		bl	vPortExitCritical
 717 006e 184B     		ldr	r3, .L186+20
 718 0070 1B68     		ldr	r3, [r3]
 719 0072 002B     		cmp	r3, #0
 720 0074 02D0     		beq	.L158
 721 0076 2B68     		ldr	r3, [r5]
 722 0078 A342     		cmp	r3, r4
 723 007a 16D0     		beq	.L185
 724              	.L158:
 725              		@ sp needed
 726 007c 70BD     		pop	{r4, r5, r6, pc}
 727              	.L182:
 728 007e 3100     		movs	r1, r6
 729 0080 1448     		ldr	r0, .L186+24
 730 0082 FFF7FEFF 		bl	vListInsertEnd
 731 0086 144A     		ldr	r2, .L186+28
 732 0088 1368     		ldr	r3, [r2]
 733 008a 0133     		adds	r3, r3, #1
 734 008c 1360     		str	r3, [r2]
 735 008e ECE7     		b	.L162
 736              	.L181:
 737 0090 2C68     		ldr	r4, [r5]
 738 0092 BCE7     		b	.L159
 739              	.L167:
 740 0094 1B68     		ldr	r3, [r3]
 741 0096 DB68     		ldr	r3, [r3, #12]
 742 0098 DB68     		ldr	r3, [r3, #12]
 743 009a 5A68     		ldr	r2, [r3, #4]
 744 009c 0B4B     		ldr	r3, .L186+16
 745 009e 1A60     		str	r2, [r3]
 746 00a0 E3E7     		b	.L162
 747              	.L184:
 748 00a2 2000     		movs	r0, r4
 749 00a4 FFF7FEFF 		bl	vPortFree
 750 00a8 D7E7     		b	.L164
ARM GAS  /tmp/ccSQ6G3A.s 			page 14


 751              	.L185:
 752 00aa 0C4B     		ldr	r3, .L186+32
 753 00ac 1B68     		ldr	r3, [r3]
 754 00ae 002B     		cmp	r3, #0
 755 00b0 01D0     		beq	.L169
 756              		.syntax divided
 757              	@ 1183 "Middlewares/Third_Party/FreeRTOS/Source/tasks.c" 1
 758 00b2 72B6     		 cpsid i 
 759              	@ 0 "" 2
 760              		.thumb
 761              		.syntax unified
 762              	.L170:
 763 00b4 FEE7     		b	.L170
 764              	.L169:
 765 00b6 FFF7FEFF 		bl	vPortYield
 766 00ba DFE7     		b	.L158
 767              	.L187:
 768              		.align	2
 769              	.L186:
 770 00bc 00000000 		.word	.LANCHOR1
 771 00c0 00000000 		.word	.LANCHOR10
 772 00c4 00000000 		.word	.LANCHOR0
 773 00c8 00000000 		.word	.LANCHOR7
 774 00cc 00000000 		.word	.LANCHOR13
 775 00d0 00000000 		.word	.LANCHOR9
 776 00d4 00000000 		.word	.LANCHOR5
 777 00d8 00000000 		.word	.LANCHOR12
 778 00dc 00000000 		.word	.LANCHOR14
 780              		.section	.text.eTaskGetState,"ax",%progbits
 781              		.align	1
 782              		.p2align 2,,3
 783              		.global	eTaskGetState
 784              		.syntax unified
 785              		.code	16
 786              		.thumb_func
 787              		.fpu softvfp
 789              	eTaskGetState:
 790              		@ args = 0, pretend = 0, frame = 0
 791              		@ frame_needed = 0, uses_anonymous_args = 0
 792 0000 70B5     		push	{r4, r5, r6, lr}
 793 0002 051E     		subs	r5, r0, #0
 794 0004 1ED0     		beq	.L199
 795 0006 154B     		ldr	r3, .L201
 796 0008 0020     		movs	r0, #0
 797 000a 1B68     		ldr	r3, [r3]
 798 000c AB42     		cmp	r3, r5
 799 000e 18D0     		beq	.L191
 800 0010 FFF7FEFF 		bl	vPortEnterCritical
 801 0014 6C69     		ldr	r4, [r5, #20]
 802 0016 FFF7FEFF 		bl	vPortExitCritical
 803 001a 114B     		ldr	r3, .L201+4
 804 001c 1B68     		ldr	r3, [r3]
 805 001e 9C42     		cmp	r4, r3
 806 0020 17D0     		beq	.L195
 807 0022 104B     		ldr	r3, .L201+8
 808 0024 1B68     		ldr	r3, [r3]
 809 0026 9C42     		cmp	r4, r3
ARM GAS  /tmp/ccSQ6G3A.s 			page 15


 810 0028 13D0     		beq	.L195
 811 002a 0F4B     		ldr	r3, .L201+12
 812 002c 9C42     		cmp	r4, r3
 813 002e 0BD0     		beq	.L200
 814 0030 0E4B     		ldr	r3, .L201+16
 815 0032 9C42     		cmp	r4, r3
 816 0034 0FD0     		beq	.L197
 817 0036 6342     		rsbs	r3, r4, #0
 818 0038 5C41     		adcs	r4, r4, r3
 819 003a 0320     		movs	r0, #3
 820 003c 6442     		rsbs	r4, r4, #0
 821 003e 2040     		ands	r0, r4
 822 0040 0130     		adds	r0, r0, #1
 823              	.L191:
 824              		@ sp needed
 825 0042 70BD     		pop	{r4, r5, r6, pc}
 826              	.L199:
 827              		.syntax divided
 828              	@ 1333 "Middlewares/Third_Party/FreeRTOS/Source/tasks.c" 1
 829 0044 72B6     		 cpsid i 
 830              	@ 0 "" 2
 831              		.thumb
 832              		.syntax unified
 833              	.L190:
 834 0046 FEE7     		b	.L190
 835              	.L200:
 836 0048 A86A     		ldr	r0, [r5, #40]
 837 004a 4342     		rsbs	r3, r0, #0
 838 004c 5841     		adcs	r0, r0, r3
 839 004e 0230     		adds	r0, r0, #2
 840 0050 F7E7     		b	.L191
 841              	.L195:
 842 0052 0220     		movs	r0, #2
 843 0054 F5E7     		b	.L191
 844              	.L197:
 845 0056 0420     		movs	r0, #4
 846 0058 F3E7     		b	.L191
 847              	.L202:
 848 005a C046     		.align	2
 849              	.L201:
 850 005c 00000000 		.word	.LANCHOR1
 851 0060 00000000 		.word	.LANCHOR7
 852 0064 00000000 		.word	.LANCHOR8
 853 0068 00000000 		.word	.LANCHOR6
 854 006c 00000000 		.word	.LANCHOR5
 856              		.section	.text.uxTaskPriorityGet,"ax",%progbits
 857              		.align	1
 858              		.p2align 2,,3
 859              		.global	uxTaskPriorityGet
 860              		.syntax unified
 861              		.code	16
 862              		.thumb_func
 863              		.fpu softvfp
 865              	uxTaskPriorityGet:
 866              		@ args = 0, pretend = 0, frame = 0
 867              		@ frame_needed = 0, uses_anonymous_args = 0
 868 0000 10B5     		push	{r4, lr}
ARM GAS  /tmp/ccSQ6G3A.s 			page 16


 869 0002 0400     		movs	r4, r0
 870 0004 FFF7FEFF 		bl	vPortEnterCritical
 871 0008 002C     		cmp	r4, #0
 872 000a 04D0     		beq	.L205
 873              	.L204:
 874 000c E46A     		ldr	r4, [r4, #44]
 875              		@ sp needed
 876 000e FFF7FEFF 		bl	vPortExitCritical
 877 0012 2000     		movs	r0, r4
 878 0014 10BD     		pop	{r4, pc}
 879              	.L205:
 880 0016 014B     		ldr	r3, .L206
 881 0018 1C68     		ldr	r4, [r3]
 882 001a F7E7     		b	.L204
 883              	.L207:
 884              		.align	2
 885              	.L206:
 886 001c 00000000 		.word	.LANCHOR1
 888              		.section	.text.uxTaskPriorityGetFromISR,"ax",%progbits
 889              		.align	1
 890              		.p2align 2,,3
 891              		.global	uxTaskPriorityGetFromISR
 892              		.syntax unified
 893              		.code	16
 894              		.thumb_func
 895              		.fpu softvfp
 897              	uxTaskPriorityGetFromISR:
 898              		@ args = 0, pretend = 0, frame = 0
 899              		@ frame_needed = 0, uses_anonymous_args = 0
 900 0000 10B5     		push	{r4, lr}
 901 0002 0400     		movs	r4, r0
 902 0004 FFF7FEFF 		bl	ulSetInterruptMaskFromISR
 903 0008 002C     		cmp	r4, #0
 904 000a 04D0     		beq	.L210
 905              	.L209:
 906 000c E46A     		ldr	r4, [r4, #44]
 907              		@ sp needed
 908 000e FFF7FEFF 		bl	vClearInterruptMaskFromISR
 909 0012 2000     		movs	r0, r4
 910 0014 10BD     		pop	{r4, pc}
 911              	.L210:
 912 0016 014B     		ldr	r3, .L211
 913 0018 1C68     		ldr	r4, [r3]
 914 001a F7E7     		b	.L209
 915              	.L212:
 916              		.align	2
 917              	.L211:
 918 001c 00000000 		.word	.LANCHOR1
 920              		.section	.text.vTaskPrioritySet,"ax",%progbits
 921              		.align	1
 922              		.p2align 2,,3
 923              		.global	vTaskPrioritySet
 924              		.syntax unified
 925              		.code	16
 926              		.thumb_func
 927              		.fpu softvfp
 929              	vTaskPrioritySet:
ARM GAS  /tmp/ccSQ6G3A.s 			page 17


 930              		@ args = 0, pretend = 0, frame = 0
 931              		@ frame_needed = 0, uses_anonymous_args = 0
 932 0000 F8B5     		push	{r3, r4, r5, r6, r7, lr}
 933 0002 0400     		movs	r4, r0
 934 0004 0D00     		movs	r5, r1
 935 0006 3729     		cmp	r1, #55
 936 0008 01D9     		bls	.L214
 937              		.syntax divided
 938              	@ 1466 "Middlewares/Third_Party/FreeRTOS/Source/tasks.c" 1
 939 000a 72B6     		 cpsid i 
 940              	@ 0 "" 2
 941              		.thumb
 942              		.syntax unified
 943              	.L215:
 944 000c FEE7     		b	.L215
 945              	.L214:
 946 000e FFF7FEFF 		bl	vPortEnterCritical
 947 0012 002C     		cmp	r4, #0
 948 0014 22D0     		beq	.L230
 949              	.L216:
 950 0016 E16C     		ldr	r1, [r4, #76]
 951 0018 8D42     		cmp	r5, r1
 952 001a 1CD0     		beq	.L218
 953 001c 1F4B     		ldr	r3, .L233
 954 001e 20D8     		bhi	.L231
 955 0020 1E68     		ldr	r6, [r3]
 956 0022 361B     		subs	r6, r6, r4
 957 0024 7342     		rsbs	r3, r6, #0
 958 0026 5E41     		adcs	r6, r6, r3
 959              	.L220:
 960 0028 E26A     		ldr	r2, [r4, #44]
 961 002a 9142     		cmp	r1, r2
 962 002c 00D1     		bne	.L221
 963 002e E562     		str	r5, [r4, #44]
 964              	.L221:
 965 0030 A369     		ldr	r3, [r4, #24]
 966 0032 E564     		str	r5, [r4, #76]
 967 0034 002B     		cmp	r3, #0
 968 0036 02DB     		blt	.L222
 969 0038 3823     		movs	r3, #56
 970 003a 5D1B     		subs	r5, r3, r5
 971 003c A561     		str	r5, [r4, #24]
 972              	.L222:
 973 003e 9300     		lsls	r3, r2, #2
 974 0040 9B18     		adds	r3, r3, r2
 975 0042 174D     		ldr	r5, .L233+4
 976 0044 9B00     		lsls	r3, r3, #2
 977 0046 6269     		ldr	r2, [r4, #20]
 978 0048 EB18     		adds	r3, r5, r3
 979 004a 9A42     		cmp	r2, r3
 980 004c 12D0     		beq	.L232
 981              	.L223:
 982 004e 002E     		cmp	r6, #0
 983 0050 01D0     		beq	.L218
 984 0052 FFF7FEFF 		bl	vPortYield
 985              	.L218:
 986 0056 FFF7FEFF 		bl	vPortExitCritical
ARM GAS  /tmp/ccSQ6G3A.s 			page 18


 987              		@ sp needed
 988 005a F8BD     		pop	{r3, r4, r5, r6, r7, pc}
 989              	.L230:
 990 005c 0F4B     		ldr	r3, .L233
 991 005e 1C68     		ldr	r4, [r3]
 992 0060 D9E7     		b	.L216
 993              	.L231:
 994 0062 1A68     		ldr	r2, [r3]
 995 0064 A242     		cmp	r2, r4
 996 0066 17D0     		beq	.L226
 997 0068 0026     		movs	r6, #0
 998 006a 1B68     		ldr	r3, [r3]
 999 006c DB6A     		ldr	r3, [r3, #44]
 1000 006e 9D42     		cmp	r5, r3
 1001 0070 7641     		adcs	r6, r6, r6
 1002 0072 D9E7     		b	.L220
 1003              	.L232:
 1004 0074 271D     		adds	r7, r4, #4
 1005 0076 3800     		movs	r0, r7
 1006 0078 FFF7FEFF 		bl	uxListRemove
 1007 007c 094A     		ldr	r2, .L233+8
 1008 007e E36A     		ldr	r3, [r4, #44]
 1009 0080 1168     		ldr	r1, [r2]
 1010 0082 8B42     		cmp	r3, r1
 1011 0084 00D9     		bls	.L224
 1012 0086 1360     		str	r3, [r2]
 1013              	.L224:
 1014 0088 9800     		lsls	r0, r3, #2
 1015 008a C018     		adds	r0, r0, r3
 1016 008c 8000     		lsls	r0, r0, #2
 1017 008e 3900     		movs	r1, r7
 1018 0090 2818     		adds	r0, r5, r0
 1019 0092 FFF7FEFF 		bl	vListInsertEnd
 1020 0096 DAE7     		b	.L223
 1021              	.L226:
 1022 0098 0026     		movs	r6, #0
 1023 009a C5E7     		b	.L220
 1024              	.L234:
 1025              		.align	2
 1026              	.L233:
 1027 009c 00000000 		.word	.LANCHOR1
 1028 00a0 00000000 		.word	pxReadyTasksLists
 1029 00a4 00000000 		.word	.LANCHOR11
 1031              		.section	.text.vTaskSuspend,"ax",%progbits
 1032              		.align	1
 1033              		.p2align 2,,3
 1034              		.global	vTaskSuspend
 1035              		.syntax unified
 1036              		.code	16
 1037              		.thumb_func
 1038              		.fpu softvfp
 1040              	vTaskSuspend:
 1041              		@ args = 0, pretend = 0, frame = 0
 1042              		@ frame_needed = 0, uses_anonymous_args = 0
 1043 0000 F8B5     		push	{r3, r4, r5, r6, r7, lr}
 1044 0002 0400     		movs	r4, r0
 1045 0004 FFF7FEFF 		bl	vPortEnterCritical
ARM GAS  /tmp/ccSQ6G3A.s 			page 19


 1046 0008 3A4D     		ldr	r5, .L275
 1047 000a 002C     		cmp	r4, #0
 1048 000c 1FD0     		beq	.L265
 1049              	.L236:
 1050 000e 271D     		adds	r7, r4, #4
 1051 0010 3800     		movs	r0, r7
 1052 0012 FFF7FEFF 		bl	uxListRemove
 1053 0016 A36A     		ldr	r3, [r4, #40]
 1054 0018 002B     		cmp	r3, #0
 1055 001a 03D0     		beq	.L237
 1056 001c 2000     		movs	r0, r4
 1057 001e 1830     		adds	r0, r0, #24
 1058 0020 FFF7FEFF 		bl	uxListRemove
 1059              	.L237:
 1060 0024 344E     		ldr	r6, .L275+4
 1061 0026 3900     		movs	r1, r7
 1062 0028 3000     		movs	r0, r6
 1063 002a FFF7FEFF 		bl	vListInsertEnd
 1064 002e 5823     		movs	r3, #88
 1065 0030 E25C     		ldrb	r2, [r4, r3]
 1066 0032 012A     		cmp	r2, #1
 1067 0034 01D1     		bne	.L238
 1068 0036 0022     		movs	r2, #0
 1069 0038 E254     		strb	r2, [r4, r3]
 1070              	.L238:
 1071 003a FFF7FEFF 		bl	vPortExitCritical
 1072 003e 2F4F     		ldr	r7, .L275+8
 1073 0040 3B68     		ldr	r3, [r7]
 1074 0042 002B     		cmp	r3, #0
 1075 0044 0ED1     		bne	.L268
 1076              	.L239:
 1077 0046 2B68     		ldr	r3, [r5]
 1078 0048 A342     		cmp	r3, r4
 1079 004a 02D0     		beq	.L269
 1080              	.L235:
 1081              		@ sp needed
 1082 004c F8BD     		pop	{r3, r4, r5, r6, r7, pc}
 1083              	.L265:
 1084 004e 2C68     		ldr	r4, [r5]
 1085 0050 DDE7     		b	.L236
 1086              	.L269:
 1087 0052 3B68     		ldr	r3, [r7]
 1088 0054 002B     		cmp	r3, #0
 1089 0056 19D0     		beq	.L243
 1090 0058 294B     		ldr	r3, .L275+12
 1091 005a 1B68     		ldr	r3, [r3]
 1092 005c 002B     		cmp	r3, #0
 1093 005e 41D0     		beq	.L244
 1094              		.syntax divided
 1095              	@ 1692 "Middlewares/Third_Party/FreeRTOS/Source/tasks.c" 1
 1096 0060 72B6     		 cpsid i 
 1097              	@ 0 "" 2
 1098              		.thumb
 1099              		.syntax unified
 1100              	.L245:
 1101 0062 FEE7     		b	.L245
 1102              	.L268:
ARM GAS  /tmp/ccSQ6G3A.s 			page 20


 1103 0064 FFF7FEFF 		bl	vPortEnterCritical
 1104 0068 264B     		ldr	r3, .L275+16
 1105 006a 1A68     		ldr	r2, [r3]
 1106 006c 1268     		ldr	r2, [r2]
 1107 006e 002A     		cmp	r2, #0
 1108 0070 08D0     		beq	.L270
 1109 0072 1B68     		ldr	r3, [r3]
 1110 0074 DB68     		ldr	r3, [r3, #12]
 1111 0076 DB68     		ldr	r3, [r3, #12]
 1112 0078 5A68     		ldr	r2, [r3, #4]
 1113 007a 234B     		ldr	r3, .L275+20
 1114 007c 1A60     		str	r2, [r3]
 1115              	.L241:
 1116 007e FFF7FEFF 		bl	vPortExitCritical
 1117 0082 E0E7     		b	.L239
 1118              	.L270:
 1119 0084 204B     		ldr	r3, .L275+20
 1120 0086 013A     		subs	r2, r2, #1
 1121 0088 1A60     		str	r2, [r3]
 1122 008a F8E7     		b	.L241
 1123              	.L243:
 1124 008c 1F4A     		ldr	r2, .L275+24
 1125 008e 3168     		ldr	r1, [r6]
 1126 0090 1268     		ldr	r2, [r2]
 1127 0092 9142     		cmp	r1, r2
 1128 0094 20D0     		beq	.L271
 1129 0096 1A4B     		ldr	r3, .L275+12
 1130 0098 1B68     		ldr	r3, [r3]
 1131 009a 002B     		cmp	r3, #0
 1132 009c 1ED1     		bne	.L272
 1133 009e 1C4A     		ldr	r2, .L275+28
 1134 00a0 1C4E     		ldr	r6, .L275+32
 1135 00a2 1360     		str	r3, [r2]
 1136 00a4 3268     		ldr	r2, [r6]
 1137 00a6 1C48     		ldr	r0, .L275+36
 1138 00a8 02E0     		b	.L267
 1139              	.L252:
 1140 00aa 002A     		cmp	r2, #0
 1141 00ac 1DD0     		beq	.L273
 1142 00ae 013A     		subs	r2, r2, #1
 1143              	.L267:
 1144 00b0 9300     		lsls	r3, r2, #2
 1145 00b2 9918     		adds	r1, r3, r2
 1146 00b4 8900     		lsls	r1, r1, #2
 1147 00b6 4158     		ldr	r1, [r0, r1]
 1148 00b8 0029     		cmp	r1, #0
 1149 00ba F6D0     		beq	.L252
 1150 00bc 9B18     		adds	r3, r3, r2
 1151 00be 9B00     		lsls	r3, r3, #2
 1152 00c0 C418     		adds	r4, r0, r3
 1153 00c2 6168     		ldr	r1, [r4, #4]
 1154 00c4 0833     		adds	r3, r3, #8
 1155 00c6 4968     		ldr	r1, [r1, #4]
 1156 00c8 C318     		adds	r3, r0, r3
 1157 00ca 6160     		str	r1, [r4, #4]
 1158 00cc 9942     		cmp	r1, r3
 1159 00ce 0ED0     		beq	.L274
ARM GAS  /tmp/ccSQ6G3A.s 			page 21


 1160              	.L253:
 1161 00d0 CB68     		ldr	r3, [r1, #12]
 1162 00d2 2B60     		str	r3, [r5]
 1163 00d4 3260     		str	r2, [r6]
 1164 00d6 B9E7     		b	.L235
 1165              	.L271:
 1166 00d8 2B60     		str	r3, [r5]
 1167 00da B7E7     		b	.L235
 1168              	.L272:
 1169 00dc 0122     		movs	r2, #1
 1170 00de 0C4B     		ldr	r3, .L275+28
 1171 00e0 1A60     		str	r2, [r3]
 1172 00e2 B3E7     		b	.L235
 1173              	.L244:
 1174 00e4 FFF7FEFF 		bl	vPortYield
 1175 00e8 B0E7     		b	.L235
 1176              	.L273:
 1177              		.syntax divided
 1178              	@ 2890 "Middlewares/Third_Party/FreeRTOS/Source/tasks.c" 1
 1179 00ea 72B6     		 cpsid i 
 1180              	@ 0 "" 2
 1181              		.thumb
 1182              		.syntax unified
 1183              	.L251:
 1184 00ec FEE7     		b	.L251
 1185              	.L274:
 1186 00ee 4968     		ldr	r1, [r1, #4]
 1187 00f0 6160     		str	r1, [r4, #4]
 1188 00f2 EDE7     		b	.L253
 1189              	.L276:
 1190              		.align	2
 1191              	.L275:
 1192 00f4 00000000 		.word	.LANCHOR1
 1193 00f8 00000000 		.word	.LANCHOR6
 1194 00fc 00000000 		.word	.LANCHOR9
 1195 0100 00000000 		.word	.LANCHOR14
 1196 0104 00000000 		.word	.LANCHOR7
 1197 0108 00000000 		.word	.LANCHOR13
 1198 010c 00000000 		.word	.LANCHOR0
 1199 0110 00000000 		.word	.LANCHOR15
 1200 0114 00000000 		.word	.LANCHOR11
 1201 0118 00000000 		.word	pxReadyTasksLists
 1203              		.section	.text.vTaskResume,"ax",%progbits
 1204              		.align	1
 1205              		.p2align 2,,3
 1206              		.global	vTaskResume
 1207              		.syntax unified
 1208              		.code	16
 1209              		.thumb_func
 1210              		.fpu softvfp
 1212              	vTaskResume:
 1213              		@ args = 0, pretend = 0, frame = 0
 1214              		@ frame_needed = 0, uses_anonymous_args = 0
 1215 0000 70B5     		push	{r4, r5, r6, lr}
 1216 0002 041E     		subs	r4, r0, #0
 1217 0004 0CD0     		beq	.L285
 1218 0006 174D     		ldr	r5, .L287
ARM GAS  /tmp/ccSQ6G3A.s 			page 22


 1219 0008 2B68     		ldr	r3, [r5]
 1220 000a 8342     		cmp	r3, r0
 1221 000c 07D0     		beq	.L277
 1222 000e FFF7FEFF 		bl	vPortEnterCritical
 1223 0012 154B     		ldr	r3, .L287+4
 1224 0014 6269     		ldr	r2, [r4, #20]
 1225 0016 9A42     		cmp	r2, r3
 1226 0018 04D0     		beq	.L286
 1227              	.L282:
 1228 001a FFF7FEFF 		bl	vPortExitCritical
 1229              	.L277:
 1230              		@ sp needed
 1231 001e 70BD     		pop	{r4, r5, r6, pc}
 1232              	.L285:
 1233              		.syntax divided
 1234              	@ 1776 "Middlewares/Third_Party/FreeRTOS/Source/tasks.c" 1
 1235 0020 72B6     		 cpsid i 
 1236              	@ 0 "" 2
 1237              		.thumb
 1238              		.syntax unified
 1239              	.L279:
 1240 0022 FEE7     		b	.L279
 1241              	.L286:
 1242 0024 A36A     		ldr	r3, [r4, #40]
 1243 0026 114A     		ldr	r2, .L287+8
 1244 0028 9342     		cmp	r3, r2
 1245 002a F6D0     		beq	.L282
 1246 002c 002B     		cmp	r3, #0
 1247 002e F4D1     		bne	.L282
 1248 0030 261D     		adds	r6, r4, #4
 1249 0032 3000     		movs	r0, r6
 1250 0034 FFF7FEFF 		bl	uxListRemove
 1251 0038 0D4A     		ldr	r2, .L287+12
 1252 003a E36A     		ldr	r3, [r4, #44]
 1253 003c 1168     		ldr	r1, [r2]
 1254 003e 8B42     		cmp	r3, r1
 1255 0040 00D9     		bls	.L284
 1256 0042 1360     		str	r3, [r2]
 1257              	.L284:
 1258 0044 9800     		lsls	r0, r3, #2
 1259 0046 C018     		adds	r0, r0, r3
 1260 0048 0A4B     		ldr	r3, .L287+16
 1261 004a 8000     		lsls	r0, r0, #2
 1262 004c C018     		adds	r0, r0, r3
 1263 004e 3100     		movs	r1, r6
 1264 0050 FFF7FEFF 		bl	vListInsertEnd
 1265 0054 2B68     		ldr	r3, [r5]
 1266 0056 E26A     		ldr	r2, [r4, #44]
 1267 0058 DB6A     		ldr	r3, [r3, #44]
 1268 005a 9A42     		cmp	r2, r3
 1269 005c DDD3     		bcc	.L282
 1270 005e FFF7FEFF 		bl	vPortYield
 1271 0062 DAE7     		b	.L282
 1272              	.L288:
 1273              		.align	2
 1274              	.L287:
 1275 0064 00000000 		.word	.LANCHOR1
ARM GAS  /tmp/ccSQ6G3A.s 			page 23


 1276 0068 00000000 		.word	.LANCHOR6
 1277 006c 00000000 		.word	.LANCHOR4
 1278 0070 00000000 		.word	.LANCHOR11
 1279 0074 00000000 		.word	pxReadyTasksLists
 1281              		.section	.text.xTaskResumeFromISR,"ax",%progbits
 1282              		.align	1
 1283              		.p2align 2,,3
 1284              		.global	xTaskResumeFromISR
 1285              		.syntax unified
 1286              		.code	16
 1287              		.thumb_func
 1288              		.fpu softvfp
 1290              	xTaskResumeFromISR:
 1291              		@ args = 0, pretend = 0, frame = 0
 1292              		@ frame_needed = 0, uses_anonymous_args = 0
 1293 0000 F8B5     		push	{r3, r4, r5, r6, r7, lr}
 1294 0002 041E     		subs	r4, r0, #0
 1295 0004 0CD0     		beq	.L298
 1296 0006 FFF7FEFF 		bl	ulSetInterruptMaskFromISR
 1297 000a 1A4B     		ldr	r3, .L300
 1298 000c 6269     		ldr	r2, [r4, #20]
 1299 000e 0600     		movs	r6, r0
 1300 0010 0025     		movs	r5, #0
 1301 0012 9A42     		cmp	r2, r3
 1302 0014 06D0     		beq	.L299
 1303              	.L292:
 1304 0016 3000     		movs	r0, r6
 1305 0018 FFF7FEFF 		bl	vClearInterruptMaskFromISR
 1306              		@ sp needed
 1307 001c 2800     		movs	r0, r5
 1308 001e F8BD     		pop	{r3, r4, r5, r6, r7, pc}
 1309              	.L298:
 1310              		.syntax divided
 1311              	@ 1831 "Middlewares/Third_Party/FreeRTOS/Source/tasks.c" 1
 1312 0020 72B6     		 cpsid i 
 1313              	@ 0 "" 2
 1314              		.thumb
 1315              		.syntax unified
 1316              	.L291:
 1317 0022 FEE7     		b	.L291
 1318              	.L299:
 1319 0024 A36A     		ldr	r3, [r4, #40]
 1320 0026 1448     		ldr	r0, .L300+4
 1321 0028 8342     		cmp	r3, r0
 1322 002a F4D0     		beq	.L292
 1323 002c 002B     		cmp	r3, #0
 1324 002e F2D1     		bne	.L292
 1325 0030 124B     		ldr	r3, .L300+8
 1326 0032 1B68     		ldr	r3, [r3]
 1327 0034 002B     		cmp	r3, #0
 1328 0036 18D1     		bne	.L293
 1329 0038 114B     		ldr	r3, .L300+12
 1330 003a E26A     		ldr	r2, [r4, #44]
 1331 003c 1B68     		ldr	r3, [r3]
 1332 003e 271D     		adds	r7, r4, #4
 1333 0040 DB6A     		ldr	r3, [r3, #44]
 1334 0042 3800     		movs	r0, r7
ARM GAS  /tmp/ccSQ6G3A.s 			page 24


 1335 0044 9A42     		cmp	r2, r3
 1336 0046 6D41     		adcs	r5, r5, r5
 1337 0048 FFF7FEFF 		bl	uxListRemove
 1338 004c 0D4A     		ldr	r2, .L300+16
 1339 004e E36A     		ldr	r3, [r4, #44]
 1340 0050 1168     		ldr	r1, [r2]
 1341 0052 8B42     		cmp	r3, r1
 1342 0054 00D9     		bls	.L294
 1343 0056 1360     		str	r3, [r2]
 1344              	.L294:
 1345 0058 9800     		lsls	r0, r3, #2
 1346 005a C018     		adds	r0, r0, r3
 1347 005c 0A4B     		ldr	r3, .L300+20
 1348 005e 8000     		lsls	r0, r0, #2
 1349 0060 3900     		movs	r1, r7
 1350 0062 C018     		adds	r0, r0, r3
 1351 0064 FFF7FEFF 		bl	vListInsertEnd
 1352 0068 D5E7     		b	.L292
 1353              	.L293:
 1354 006a 2100     		movs	r1, r4
 1355 006c 1831     		adds	r1, r1, #24
 1356 006e FFF7FEFF 		bl	vListInsertEnd
 1357 0072 D0E7     		b	.L292
 1358              	.L301:
 1359              		.align	2
 1360              	.L300:
 1361 0074 00000000 		.word	.LANCHOR6
 1362 0078 00000000 		.word	.LANCHOR4
 1363 007c 00000000 		.word	.LANCHOR14
 1364 0080 00000000 		.word	.LANCHOR1
 1365 0084 00000000 		.word	.LANCHOR11
 1366 0088 00000000 		.word	pxReadyTasksLists
 1368              		.section	.text.vTaskStartScheduler,"ax",%progbits
 1369              		.align	1
 1370              		.p2align 2,,3
 1371              		.global	vTaskStartScheduler
 1372              		.syntax unified
 1373              		.code	16
 1374              		.thumb_func
 1375              		.fpu softvfp
 1377              	vTaskStartScheduler:
 1378              		@ args = 0, pretend = 0, frame = 16
 1379              		@ frame_needed = 0, uses_anonymous_args = 0
 1380 0000 F0B5     		push	{r4, r5, r6, r7, lr}
 1381 0002 0025     		movs	r5, #0
 1382 0004 85B0     		sub	sp, sp, #20
 1383 0006 6846     		mov	r0, sp
 1384 0008 02AA     		add	r2, sp, #8
 1385 000a 01A9     		add	r1, sp, #4
 1386 000c 0095     		str	r5, [sp]
 1387 000e 0195     		str	r5, [sp, #4]
 1388 0010 FFF7FEFF 		bl	vApplicationGetIdleTaskMemory
 1389 0014 0198     		ldr	r0, [sp, #4]
 1390 0016 0028     		cmp	r0, #0
 1391 0018 0CD0     		beq	.L312
 1392 001a 009C     		ldr	r4, [sp]
 1393 001c 002C     		cmp	r4, #0
ARM GAS  /tmp/ccSQ6G3A.s 			page 25


 1394 001e 07D0     		beq	.L313
 1395 0020 5C23     		movs	r3, #92
 1396 0022 0393     		str	r3, [sp, #12]
 1397 0024 039B     		ldr	r3, [sp, #12]
 1398 0026 029E     		ldr	r6, [sp, #8]
 1399 0028 5C2B     		cmp	r3, #92
 1400 002a 05D0     		beq	.L307
 1401              		.syntax divided
 1402              	@ 595 "Middlewares/Third_Party/FreeRTOS/Source/tasks.c" 1
 1403 002c 72B6     		 cpsid i 
 1404              	@ 0 "" 2
 1405              		.thumb
 1406              		.syntax unified
 1407              	.L308:
 1408 002e FEE7     		b	.L308
 1409              	.L313:
 1410              		.syntax divided
 1411              	@ 587 "Middlewares/Third_Party/FreeRTOS/Source/tasks.c" 1
 1412 0030 72B6     		 cpsid i 
 1413              	@ 0 "" 2
 1414              		.thumb
 1415              		.syntax unified
 1416              	.L306:
 1417 0032 FEE7     		b	.L306
 1418              	.L312:
 1419              		.syntax divided
 1420              	@ 586 "Middlewares/Third_Party/FreeRTOS/Source/tasks.c" 1
 1421 0034 72B6     		 cpsid i 
 1422              	@ 0 "" 2
 1423              		.thumb
 1424              		.syntax unified
 1425              	.L304:
 1426 0036 FEE7     		b	.L304
 1427              	.L307:
 1428 0038 5923     		movs	r3, #89
 1429 003a 0222     		movs	r2, #2
 1430 003c B600     		lsls	r6, r6, #2
 1431 003e A521     		movs	r1, #165
 1432 0040 2063     		str	r0, [r4, #48]
 1433 0042 E254     		strb	r2, [r4, r3]
 1434 0044 3200     		movs	r2, r6
 1435 0046 FFF7FEFF 		bl	memset
 1436 004a 236B     		ldr	r3, [r4, #48]
 1437 004c 043E     		subs	r6, r6, #4
 1438 004e 9C46     		mov	ip, r3
 1439 0050 0723     		movs	r3, #7
 1440 0052 6644     		add	r6, r6, ip
 1441 0054 9E43     		bics	r6, r3
 1442 0056 1A4B     		ldr	r3, .L316
 1443 0058 3827     		movs	r7, #56
 1444 005a 6363     		str	r3, [r4, #52]
 1445 005c 4323     		movs	r3, #67
 1446 005e E555     		strb	r5, [r4, r7]
 1447 0060 201D     		adds	r0, r4, #4
 1448 0062 E554     		strb	r5, [r4, r3]
 1449 0064 E562     		str	r5, [r4, #44]
 1450 0066 E564     		str	r5, [r4, #76]
ARM GAS  /tmp/ccSQ6G3A.s 			page 26


 1451 0068 2565     		str	r5, [r4, #80]
 1452 006a FFF7FEFF 		bl	vListInitialiseItem
 1453 006e 2000     		movs	r0, r4
 1454 0070 1830     		adds	r0, r0, #24
 1455 0072 FFF7FEFF 		bl	vListInitialiseItem
 1456 0076 5823     		movs	r3, #88
 1457 0078 0022     		movs	r2, #0
 1458 007a 1249     		ldr	r1, .L316+4
 1459 007c 2461     		str	r4, [r4, #16]
 1460 007e A761     		str	r7, [r4, #24]
 1461 0080 6462     		str	r4, [r4, #36]
 1462 0082 6565     		str	r5, [r4, #84]
 1463 0084 3000     		movs	r0, r6
 1464 0086 E554     		strb	r5, [r4, r3]
 1465 0088 FFF7FEFF 		bl	pxPortInitialiseStack
 1466 008c 2060     		str	r0, [r4]
 1467 008e 2000     		movs	r0, r4
 1468 0090 FFF7FEFF 		bl	prvAddNewTaskToReadyList
 1469 0094 FFF7FEFF 		bl	xTimerCreateTimerTask
 1470 0098 0128     		cmp	r0, #1
 1471 009a 03D0     		beq	.L314
 1472 009c 431C     		adds	r3, r0, #1
 1473 009e 0DD0     		beq	.L315
 1474              	.L302:
 1475 00a0 05B0     		add	sp, sp, #20
 1476              		@ sp needed
 1477 00a2 F0BD     		pop	{r4, r5, r6, r7, pc}
 1478              	.L314:
 1479              		.syntax divided
 1480              	@ 1967 "Middlewares/Third_Party/FreeRTOS/Source/tasks.c" 1
 1481 00a4 72B6     		 cpsid i 
 1482              	@ 0 "" 2
 1483              		.thumb
 1484              		.syntax unified
 1485 00a6 0122     		movs	r2, #1
 1486 00a8 074B     		ldr	r3, .L316+8
 1487 00aa 5242     		rsbs	r2, r2, #0
 1488 00ac 1A60     		str	r2, [r3]
 1489 00ae 074B     		ldr	r3, .L316+12
 1490 00b0 1860     		str	r0, [r3]
 1491 00b2 074B     		ldr	r3, .L316+16
 1492 00b4 1D60     		str	r5, [r3]
 1493 00b6 FFF7FEFF 		bl	xPortStartScheduler
 1494 00ba F1E7     		b	.L302
 1495              	.L315:
 1496              		.syntax divided
 1497              	@ 2006 "Middlewares/Third_Party/FreeRTOS/Source/tasks.c" 1
 1498 00bc 72B6     		 cpsid i 
 1499              	@ 0 "" 2
 1500              		.thumb
 1501              		.syntax unified
 1502              	.L311:
 1503 00be FEE7     		b	.L311
 1504              	.L317:
 1505              		.align	2
 1506              	.L316:
 1507 00c0 49444C45 		.word	1162626121
ARM GAS  /tmp/ccSQ6G3A.s 			page 27


 1508 00c4 00000000 		.word	prvIdleTask
 1509 00c8 00000000 		.word	.LANCHOR13
 1510 00cc 00000000 		.word	.LANCHOR9
 1511 00d0 00000000 		.word	.LANCHOR16
 1513              		.section	.text.vTaskEndScheduler,"ax",%progbits
 1514              		.align	1
 1515              		.p2align 2,,3
 1516              		.global	vTaskEndScheduler
 1517              		.syntax unified
 1518              		.code	16
 1519              		.thumb_func
 1520              		.fpu softvfp
 1522              	vTaskEndScheduler:
 1523              		@ args = 0, pretend = 0, frame = 0
 1524              		@ frame_needed = 0, uses_anonymous_args = 0
 1525 0000 10B5     		push	{r4, lr}
 1526              		.syntax divided
 1527              	@ 2020 "Middlewares/Third_Party/FreeRTOS/Source/tasks.c" 1
 1528 0002 72B6     		 cpsid i 
 1529              	@ 0 "" 2
 1530              		.thumb
 1531              		.syntax unified
 1532 0004 0022     		movs	r2, #0
 1533 0006 024B     		ldr	r3, .L319
 1534              		@ sp needed
 1535 0008 1A60     		str	r2, [r3]
 1536 000a FFF7FEFF 		bl	vPortEndScheduler
 1537 000e 10BD     		pop	{r4, pc}
 1538              	.L320:
 1539              		.align	2
 1540              	.L319:
 1541 0010 00000000 		.word	.LANCHOR9
 1543              		.section	.text.vTaskSuspendAll,"ax",%progbits
 1544              		.align	1
 1545              		.p2align 2,,3
 1546              		.global	vTaskSuspendAll
 1547              		.syntax unified
 1548              		.code	16
 1549              		.thumb_func
 1550              		.fpu softvfp
 1552              	vTaskSuspendAll:
 1553              		@ args = 0, pretend = 0, frame = 0
 1554              		@ frame_needed = 0, uses_anonymous_args = 0
 1555              		@ link register save eliminated.
 1556 0000 024A     		ldr	r2, .L322
 1557              		@ sp needed
 1558 0002 1368     		ldr	r3, [r2]
 1559 0004 0133     		adds	r3, r3, #1
 1560 0006 1360     		str	r3, [r2]
 1561 0008 7047     		bx	lr
 1562              	.L323:
 1563 000a C046     		.align	2
 1564              	.L322:
 1565 000c 00000000 		.word	.LANCHOR14
 1567              		.section	.text.xTaskGetTickCount,"ax",%progbits
 1568              		.align	1
 1569              		.p2align 2,,3
ARM GAS  /tmp/ccSQ6G3A.s 			page 28


 1570              		.global	xTaskGetTickCount
 1571              		.syntax unified
 1572              		.code	16
 1573              		.thumb_func
 1574              		.fpu softvfp
 1576              	xTaskGetTickCount:
 1577              		@ args = 0, pretend = 0, frame = 0
 1578              		@ frame_needed = 0, uses_anonymous_args = 0
 1579              		@ link register save eliminated.
 1580 0000 014B     		ldr	r3, .L325
 1581              		@ sp needed
 1582 0002 1868     		ldr	r0, [r3]
 1583 0004 7047     		bx	lr
 1584              	.L326:
 1585 0006 C046     		.align	2
 1586              	.L325:
 1587 0008 00000000 		.word	.LANCHOR16
 1589              		.section	.text.xTaskGetTickCountFromISR,"ax",%progbits
 1590              		.align	1
 1591              		.p2align 2,,3
 1592              		.global	xTaskGetTickCountFromISR
 1593              		.syntax unified
 1594              		.code	16
 1595              		.thumb_func
 1596              		.fpu softvfp
 1598              	xTaskGetTickCountFromISR:
 1599              		@ args = 0, pretend = 0, frame = 0
 1600              		@ frame_needed = 0, uses_anonymous_args = 0
 1601              		@ link register save eliminated.
 1602 0000 014B     		ldr	r3, .L328
 1603              		@ sp needed
 1604 0002 1868     		ldr	r0, [r3]
 1605 0004 7047     		bx	lr
 1606              	.L329:
 1607 0006 C046     		.align	2
 1608              	.L328:
 1609 0008 00000000 		.word	.LANCHOR16
 1611              		.section	.text.uxTaskGetNumberOfTasks,"ax",%progbits
 1612              		.align	1
 1613              		.p2align 2,,3
 1614              		.global	uxTaskGetNumberOfTasks
 1615              		.syntax unified
 1616              		.code	16
 1617              		.thumb_func
 1618              		.fpu softvfp
 1620              	uxTaskGetNumberOfTasks:
 1621              		@ args = 0, pretend = 0, frame = 0
 1622              		@ frame_needed = 0, uses_anonymous_args = 0
 1623              		@ link register save eliminated.
 1624 0000 014B     		ldr	r3, .L331
 1625              		@ sp needed
 1626 0002 1868     		ldr	r0, [r3]
 1627 0004 7047     		bx	lr
 1628              	.L332:
 1629 0006 C046     		.align	2
 1630              	.L331:
 1631 0008 00000000 		.word	.LANCHOR0
ARM GAS  /tmp/ccSQ6G3A.s 			page 29


 1633              		.section	.text.pcTaskGetName,"ax",%progbits
 1634              		.align	1
 1635              		.p2align 2,,3
 1636              		.global	pcTaskGetName
 1637              		.syntax unified
 1638              		.code	16
 1639              		.thumb_func
 1640              		.fpu softvfp
 1642              	pcTaskGetName:
 1643              		@ args = 0, pretend = 0, frame = 0
 1644              		@ frame_needed = 0, uses_anonymous_args = 0
 1645              		@ link register save eliminated.
 1646 0000 0028     		cmp	r0, #0
 1647 0002 01D0     		beq	.L336
 1648              	.L334:
 1649 0004 3430     		adds	r0, r0, #52
 1650              		@ sp needed
 1651 0006 7047     		bx	lr
 1652              	.L336:
 1653 0008 024B     		ldr	r3, .L337
 1654 000a 1868     		ldr	r0, [r3]
 1655 000c 0028     		cmp	r0, #0
 1656 000e F9D1     		bne	.L334
 1657              		.syntax divided
 1658              	@ 2270 "Middlewares/Third_Party/FreeRTOS/Source/tasks.c" 1
 1659 0010 72B6     		 cpsid i 
 1660              	@ 0 "" 2
 1661              		.thumb
 1662              		.syntax unified
 1663              	.L335:
 1664 0012 FEE7     		b	.L335
 1665              	.L338:
 1666              		.align	2
 1667              	.L337:
 1668 0014 00000000 		.word	.LANCHOR1
 1670              		.section	.text.xTaskIncrementTick,"ax",%progbits
 1671              		.align	1
 1672              		.p2align 2,,3
 1673              		.global	xTaskIncrementTick
 1674              		.syntax unified
 1675              		.code	16
 1676              		.thumb_func
 1677              		.fpu softvfp
 1679              	xTaskIncrementTick:
 1680              		@ args = 0, pretend = 0, frame = 8
 1681              		@ frame_needed = 0, uses_anonymous_args = 0
 1682 0000 F0B5     		push	{r4, r5, r6, r7, lr}
 1683 0002 DE46     		mov	lr, fp
 1684 0004 5746     		mov	r7, r10
 1685 0006 4E46     		mov	r6, r9
 1686 0008 4546     		mov	r5, r8
 1687 000a E0B5     		push	{r5, r6, r7, lr}
 1688 000c 4B4B     		ldr	r3, .L366
 1689 000e 83B0     		sub	sp, sp, #12
 1690 0010 1B68     		ldr	r3, [r3]
 1691 0012 002B     		cmp	r3, #0
 1692 0014 47D1     		bne	.L340
ARM GAS  /tmp/ccSQ6G3A.s 			page 30


 1693 0016 4A4B     		ldr	r3, .L366+4
 1694 0018 1E68     		ldr	r6, [r3]
 1695 001a 0136     		adds	r6, r6, #1
 1696 001c 1E60     		str	r6, [r3]
 1697 001e 002E     		cmp	r6, #0
 1698 0020 53D0     		beq	.L364
 1699 0022 484D     		ldr	r5, .L366+8
 1700              	.L341:
 1701 0024 2B68     		ldr	r3, [r5]
 1702 0026 B342     		cmp	r3, r6
 1703 0028 66D8     		bhi	.L354
 1704 002a 474B     		ldr	r3, .L366+12
 1705 002c 0024     		movs	r4, #0
 1706 002e 9A46     		mov	r10, r3
 1707 0030 1B68     		ldr	r3, [r3]
 1708 0032 1B68     		ldr	r3, [r3]
 1709 0034 002B     		cmp	r3, #0
 1710 0036 00D1     		bne	.LCB1726
 1711 0038 71E0     		b	.L355	@long jump
 1712              	.LCB1726:
 1713 003a 444B     		ldr	r3, .L366+16
 1714 003c 9846     		mov	r8, r3
 1715 003e 444B     		ldr	r3, .L366+20
 1716 0040 9946     		mov	r9, r3
 1717 0042 444B     		ldr	r3, .L366+24
 1718 0044 9B46     		mov	fp, r3
 1719 0046 25E0     		b	.L347
 1720              	.L348:
 1721 0048 3B1D     		adds	r3, r7, #4
 1722 004a 1800     		movs	r0, r3
 1723 004c 0193     		str	r3, [sp, #4]
 1724 004e FFF7FEFF 		bl	uxListRemove
 1725 0052 BB6A     		ldr	r3, [r7, #40]
 1726 0054 002B     		cmp	r3, #0
 1727 0056 03D0     		beq	.L349
 1728 0058 3800     		movs	r0, r7
 1729 005a 1830     		adds	r0, r0, #24
 1730 005c FFF7FEFF 		bl	uxListRemove
 1731              	.L349:
 1732 0060 5A46     		mov	r2, fp
 1733 0062 FB6A     		ldr	r3, [r7, #44]
 1734 0064 1268     		ldr	r2, [r2]
 1735 0066 9342     		cmp	r3, r2
 1736 0068 01D9     		bls	.L350
 1737 006a 5A46     		mov	r2, fp
 1738 006c 1360     		str	r3, [r2]
 1739              	.L350:
 1740 006e 9800     		lsls	r0, r3, #2
 1741 0070 C018     		adds	r0, r0, r3
 1742 0072 8000     		lsls	r0, r0, #2
 1743 0074 0199     		ldr	r1, [sp, #4]
 1744 0076 4044     		add	r0, r0, r8
 1745 0078 FFF7FEFF 		bl	vListInsertEnd
 1746 007c 4B46     		mov	r3, r9
 1747 007e 1B68     		ldr	r3, [r3]
 1748 0080 FA6A     		ldr	r2, [r7, #44]
 1749 0082 DB6A     		ldr	r3, [r3, #44]
ARM GAS  /tmp/ccSQ6G3A.s 			page 31


 1750 0084 9A42     		cmp	r2, r3
 1751 0086 00D3     		bcc	.L351
 1752 0088 0124     		movs	r4, #1
 1753              	.L351:
 1754 008a 5346     		mov	r3, r10
 1755 008c 1B68     		ldr	r3, [r3]
 1756 008e 1B68     		ldr	r3, [r3]
 1757 0090 002B     		cmp	r3, #0
 1758 0092 48D0     		beq	.L346
 1759              	.L347:
 1760 0094 5346     		mov	r3, r10
 1761 0096 1B68     		ldr	r3, [r3]
 1762 0098 DB68     		ldr	r3, [r3, #12]
 1763 009a DF68     		ldr	r7, [r3, #12]
 1764 009c 7B68     		ldr	r3, [r7, #4]
 1765 009e 9E42     		cmp	r6, r3
 1766 00a0 D2D2     		bcs	.L348
 1767 00a2 2B60     		str	r3, [r5]
 1768 00a4 2DE0     		b	.L345
 1769              	.L340:
 1770 00a6 0024     		movs	r4, #0
 1771 00a8 2B4A     		ldr	r2, .L366+28
 1772 00aa 1368     		ldr	r3, [r2]
 1773 00ac 0133     		adds	r3, r3, #1
 1774 00ae 1360     		str	r3, [r2]
 1775              	.L352:
 1776 00b0 2A4B     		ldr	r3, .L366+32
 1777 00b2 1B68     		ldr	r3, [r3]
 1778 00b4 002B     		cmp	r3, #0
 1779 00b6 00D0     		beq	.L339
 1780 00b8 0124     		movs	r4, #1
 1781              	.L339:
 1782 00ba 2000     		movs	r0, r4
 1783 00bc 03B0     		add	sp, sp, #12
 1784              		@ sp needed
 1785 00be 3CBC     		pop	{r2, r3, r4, r5}
 1786 00c0 9046     		mov	r8, r2
 1787 00c2 9946     		mov	r9, r3
 1788 00c4 A246     		mov	r10, r4
 1789 00c6 AB46     		mov	fp, r5
 1790 00c8 F0BD     		pop	{r4, r5, r6, r7, pc}
 1791              	.L364:
 1792 00ca 1F4B     		ldr	r3, .L366+12
 1793 00cc 1A68     		ldr	r2, [r3]
 1794 00ce 1268     		ldr	r2, [r2]
 1795 00d0 002A     		cmp	r2, #0
 1796 00d2 22D1     		bne	.L365
 1797 00d4 224A     		ldr	r2, .L366+36
 1798 00d6 1968     		ldr	r1, [r3]
 1799 00d8 1068     		ldr	r0, [r2]
 1800 00da 1860     		str	r0, [r3]
 1801 00dc 1160     		str	r1, [r2]
 1802 00de 2149     		ldr	r1, .L366+40
 1803 00e0 0A68     		ldr	r2, [r1]
 1804 00e2 0132     		adds	r2, r2, #1
 1805 00e4 0A60     		str	r2, [r1]
 1806 00e6 1A68     		ldr	r2, [r3]
ARM GAS  /tmp/ccSQ6G3A.s 			page 32


 1807 00e8 1268     		ldr	r2, [r2]
 1808 00ea 002A     		cmp	r2, #0
 1809 00ec 1FD1     		bne	.L344
 1810 00ee 0123     		movs	r3, #1
 1811 00f0 144D     		ldr	r5, .L366+8
 1812 00f2 5B42     		rsbs	r3, r3, #0
 1813 00f4 2B60     		str	r3, [r5]
 1814 00f6 95E7     		b	.L341
 1815              	.L354:
 1816 00f8 144B     		ldr	r3, .L366+16
 1817 00fa 0024     		movs	r4, #0
 1818 00fc 9846     		mov	r8, r3
 1819 00fe 144B     		ldr	r3, .L366+20
 1820 0100 9946     		mov	r9, r3
 1821              	.L345:
 1822 0102 4B46     		mov	r3, r9
 1823 0104 1B68     		ldr	r3, [r3]
 1824 0106 DA6A     		ldr	r2, [r3, #44]
 1825 0108 9300     		lsls	r3, r2, #2
 1826 010a 9B18     		adds	r3, r3, r2
 1827 010c 4246     		mov	r2, r8
 1828 010e 9B00     		lsls	r3, r3, #2
 1829 0110 D358     		ldr	r3, [r2, r3]
 1830 0112 012B     		cmp	r3, #1
 1831 0114 CCD9     		bls	.L352
 1832 0116 0124     		movs	r4, #1
 1833 0118 CAE7     		b	.L352
 1834              	.L365:
 1835              		.syntax divided
 1836              	@ 2605 "Middlewares/Third_Party/FreeRTOS/Source/tasks.c" 1
 1837 011a 72B6     		 cpsid i 
 1838              	@ 0 "" 2
 1839              		.thumb
 1840              		.syntax unified
 1841              	.L343:
 1842 011c FEE7     		b	.L343
 1843              	.L355:
 1844 011e 0B4B     		ldr	r3, .L366+16
 1845 0120 9846     		mov	r8, r3
 1846 0122 0B4B     		ldr	r3, .L366+20
 1847 0124 9946     		mov	r9, r3
 1848              	.L346:
 1849 0126 0123     		movs	r3, #1
 1850 0128 5B42     		rsbs	r3, r3, #0
 1851 012a 2B60     		str	r3, [r5]
 1852 012c E9E7     		b	.L345
 1853              	.L344:
 1854 012e 1B68     		ldr	r3, [r3]
 1855 0130 044D     		ldr	r5, .L366+8
 1856 0132 DB68     		ldr	r3, [r3, #12]
 1857 0134 DB68     		ldr	r3, [r3, #12]
 1858 0136 5B68     		ldr	r3, [r3, #4]
 1859 0138 2B60     		str	r3, [r5]
 1860 013a 73E7     		b	.L341
 1861              	.L367:
 1862              		.align	2
 1863              	.L366:
ARM GAS  /tmp/ccSQ6G3A.s 			page 33


 1864 013c 00000000 		.word	.LANCHOR14
 1865 0140 00000000 		.word	.LANCHOR16
 1866 0144 00000000 		.word	.LANCHOR13
 1867 0148 00000000 		.word	.LANCHOR7
 1868 014c 00000000 		.word	pxReadyTasksLists
 1869 0150 00000000 		.word	.LANCHOR1
 1870 0154 00000000 		.word	.LANCHOR11
 1871 0158 00000000 		.word	.LANCHOR18
 1872 015c 00000000 		.word	.LANCHOR15
 1873 0160 00000000 		.word	.LANCHOR8
 1874 0164 00000000 		.word	.LANCHOR17
 1876              		.section	.text.xTaskResumeAll.part.0,"ax",%progbits
 1877              		.align	1
 1878              		.p2align 2,,3
 1879              		.syntax unified
 1880              		.code	16
 1881              		.thumb_func
 1882              		.fpu softvfp
 1884              	xTaskResumeAll.part.0:
 1885              		@ args = 0, pretend = 0, frame = 0
 1886              		@ frame_needed = 0, uses_anonymous_args = 0
 1887 0000 F8B5     		push	{r3, r4, r5, r6, r7, lr}
 1888 0002 DE46     		mov	lr, fp
 1889 0004 5746     		mov	r7, r10
 1890 0006 4E46     		mov	r6, r9
 1891 0008 4546     		mov	r5, r8
 1892 000a E0B5     		push	{r5, r6, r7, lr}
 1893 000c FFF7FEFF 		bl	vPortEnterCritical
 1894 0010 3A4B     		ldr	r3, .L403
 1895 0012 1A68     		ldr	r2, [r3]
 1896 0014 013A     		subs	r2, r2, #1
 1897 0016 1A60     		str	r2, [r3]
 1898 0018 1B68     		ldr	r3, [r3]
 1899 001a 002B     		cmp	r3, #0
 1900 001c 54D1     		bne	.L371
 1901 001e 384B     		ldr	r3, .L403+4
 1902 0020 1B68     		ldr	r3, [r3]
 1903 0022 002B     		cmp	r3, #0
 1904 0024 50D0     		beq	.L371
 1905 0026 374E     		ldr	r6, .L403+8
 1906 0028 3368     		ldr	r3, [r6]
 1907 002a 002B     		cmp	r3, #0
 1908 002c 62D0     		beq	.L401
 1909 002e 364B     		ldr	r3, .L403+12
 1910 0030 364F     		ldr	r7, .L403+16
 1911 0032 9946     		mov	r9, r3
 1912 0034 364B     		ldr	r3, .L403+20
 1913 0036 9846     		mov	r8, r3
 1914 0038 364B     		ldr	r3, .L403+24
 1915 003a 9A46     		mov	r10, r3
 1916 003c 0123     		movs	r3, #1
 1917 003e 9B46     		mov	fp, r3
 1918              	.L377:
 1919 0040 F368     		ldr	r3, [r6, #12]
 1920 0042 DC68     		ldr	r4, [r3, #12]
 1921 0044 2000     		movs	r0, r4
 1922 0046 251D     		adds	r5, r4, #4
ARM GAS  /tmp/ccSQ6G3A.s 			page 34


 1923 0048 1830     		adds	r0, r0, #24
 1924 004a FFF7FEFF 		bl	uxListRemove
 1925 004e 2800     		movs	r0, r5
 1926 0050 FFF7FEFF 		bl	uxListRemove
 1927 0054 E36A     		ldr	r3, [r4, #44]
 1928 0056 3A68     		ldr	r2, [r7]
 1929 0058 9342     		cmp	r3, r2
 1930 005a 00D9     		bls	.L373
 1931 005c 3B60     		str	r3, [r7]
 1932              	.L373:
 1933 005e 9800     		lsls	r0, r3, #2
 1934 0060 C018     		adds	r0, r0, r3
 1935 0062 8000     		lsls	r0, r0, #2
 1936 0064 2900     		movs	r1, r5
 1937 0066 4844     		add	r0, r0, r9
 1938 0068 FFF7FEFF 		bl	vListInsertEnd
 1939 006c 4346     		mov	r3, r8
 1940 006e 1B68     		ldr	r3, [r3]
 1941 0070 E26A     		ldr	r2, [r4, #44]
 1942 0072 DB6A     		ldr	r3, [r3, #44]
 1943 0074 9A42     		cmp	r2, r3
 1944 0076 31D3     		bcc	.L374
 1945 0078 5346     		mov	r3, r10
 1946 007a 5A46     		mov	r2, fp
 1947 007c 1A60     		str	r2, [r3]
 1948 007e 3368     		ldr	r3, [r6]
 1949 0080 002B     		cmp	r3, #0
 1950 0082 DDD1     		bne	.L377
 1951 0084 244B     		ldr	r3, .L403+28
 1952 0086 1A68     		ldr	r2, [r3]
 1953 0088 1268     		ldr	r2, [r2]
 1954 008a 002A     		cmp	r2, #0
 1955 008c 2ED0     		beq	.L402
 1956              	.L378:
 1957 008e 1B68     		ldr	r3, [r3]
 1958 0090 DB68     		ldr	r3, [r3, #12]
 1959 0092 DB68     		ldr	r3, [r3, #12]
 1960 0094 5A68     		ldr	r2, [r3, #4]
 1961 0096 214B     		ldr	r3, .L403+32
 1962 0098 1A60     		str	r2, [r3]
 1963              	.L372:
 1964 009a 214E     		ldr	r6, .L403+36
 1965 009c 3468     		ldr	r4, [r6]
 1966 009e 002C     		cmp	r4, #0
 1967 00a0 0AD0     		beq	.L379
 1968 00a2 0125     		movs	r5, #1
 1969              	.L381:
 1970 00a4 FFF7FEFF 		bl	xTaskIncrementTick
 1971 00a8 0028     		cmp	r0, #0
 1972 00aa 01D0     		beq	.L380
 1973 00ac 5346     		mov	r3, r10
 1974 00ae 1D60     		str	r5, [r3]
 1975              	.L380:
 1976 00b0 013C     		subs	r4, r4, #1
 1977 00b2 002C     		cmp	r4, #0
 1978 00b4 F6D1     		bne	.L381
 1979 00b6 3460     		str	r4, [r6]
ARM GAS  /tmp/ccSQ6G3A.s 			page 35


 1980              	.L379:
 1981 00b8 5346     		mov	r3, r10
 1982 00ba 1B68     		ldr	r3, [r3]
 1983 00bc 002B     		cmp	r3, #0
 1984 00be 03D0     		beq	.L371
 1985 00c0 FFF7FEFF 		bl	vPortYield
 1986 00c4 0124     		movs	r4, #1
 1987 00c6 00E0     		b	.L370
 1988              	.L371:
 1989 00c8 0024     		movs	r4, #0
 1990              	.L370:
 1991 00ca FFF7FEFF 		bl	vPortExitCritical
 1992              		@ sp needed
 1993 00ce 2000     		movs	r0, r4
 1994 00d0 3CBC     		pop	{r2, r3, r4, r5}
 1995 00d2 9046     		mov	r8, r2
 1996 00d4 9946     		mov	r9, r3
 1997 00d6 A246     		mov	r10, r4
 1998 00d8 AB46     		mov	fp, r5
 1999 00da F8BD     		pop	{r3, r4, r5, r6, r7, pc}
 2000              	.L374:
 2001 00dc 3368     		ldr	r3, [r6]
 2002 00de 002B     		cmp	r3, #0
 2003 00e0 AED1     		bne	.L377
 2004 00e2 0D4B     		ldr	r3, .L403+28
 2005 00e4 1A68     		ldr	r2, [r3]
 2006 00e6 1268     		ldr	r2, [r2]
 2007 00e8 002A     		cmp	r2, #0
 2008 00ea D0D1     		bne	.L378
 2009              	.L402:
 2010 00ec 0B4B     		ldr	r3, .L403+32
 2011 00ee 013A     		subs	r2, r2, #1
 2012 00f0 1A60     		str	r2, [r3]
 2013 00f2 D2E7     		b	.L372
 2014              	.L401:
 2015 00f4 074B     		ldr	r3, .L403+24
 2016 00f6 9A46     		mov	r10, r3
 2017 00f8 CFE7     		b	.L372
 2018              	.L404:
 2019 00fa C046     		.align	2
 2020              	.L403:
 2021 00fc 00000000 		.word	.LANCHOR14
 2022 0100 00000000 		.word	.LANCHOR0
 2023 0104 00000000 		.word	.LANCHOR4
 2024 0108 00000000 		.word	pxReadyTasksLists
 2025 010c 00000000 		.word	.LANCHOR11
 2026 0110 00000000 		.word	.LANCHOR1
 2027 0114 00000000 		.word	.LANCHOR15
 2028 0118 00000000 		.word	.LANCHOR7
 2029 011c 00000000 		.word	.LANCHOR13
 2030 0120 00000000 		.word	.LANCHOR18
 2032              		.section	.text.xTaskResumeAll,"ax",%progbits
 2033              		.align	1
 2034              		.p2align 2,,3
 2035              		.global	xTaskResumeAll
 2036              		.syntax unified
 2037              		.code	16
ARM GAS  /tmp/ccSQ6G3A.s 			page 36


 2038              		.thumb_func
 2039              		.fpu softvfp
 2041              	xTaskResumeAll:
 2042              		@ args = 0, pretend = 0, frame = 0
 2043              		@ frame_needed = 0, uses_anonymous_args = 0
 2044 0000 044B     		ldr	r3, .L408
 2045 0002 10B5     		push	{r4, lr}
 2046 0004 1B68     		ldr	r3, [r3]
 2047 0006 002B     		cmp	r3, #0
 2048 0008 01D1     		bne	.L406
 2049              		.syntax divided
 2050              	@ 2106 "Middlewares/Third_Party/FreeRTOS/Source/tasks.c" 1
 2051 000a 72B6     		 cpsid i 
 2052              	@ 0 "" 2
 2053              		.thumb
 2054              		.syntax unified
 2055              	.L407:
 2056 000c FEE7     		b	.L407
 2057              	.L406:
 2058 000e FFF7FEFF 		bl	xTaskResumeAll.part.0
 2059              		@ sp needed
 2060 0012 10BD     		pop	{r4, pc}
 2061              	.L409:
 2062              		.align	2
 2063              	.L408:
 2064 0014 00000000 		.word	.LANCHOR14
 2066              		.section	.text.vTaskDelayUntil,"ax",%progbits
 2067              		.align	1
 2068              		.p2align 2,,3
 2069              		.global	vTaskDelayUntil
 2070              		.syntax unified
 2071              		.code	16
 2072              		.thumb_func
 2073              		.fpu softvfp
 2075              	vTaskDelayUntil:
 2076              		@ args = 0, pretend = 0, frame = 0
 2077              		@ frame_needed = 0, uses_anonymous_args = 0
 2078 0000 F0B5     		push	{r4, r5, r6, r7, lr}
 2079 0002 C646     		mov	lr, r8
 2080 0004 0C00     		movs	r4, r1
 2081 0006 00B5     		push	{lr}
 2082 0008 0028     		cmp	r0, #0
 2083 000a 18D0     		beq	.L429
 2084 000c 0029     		cmp	r1, #0
 2085 000e 01D1     		bne	.L413
 2086              		.syntax divided
 2087              	@ 1204 "Middlewares/Third_Party/FreeRTOS/Source/tasks.c" 1
 2088 0010 72B6     		 cpsid i 
 2089              	@ 0 "" 2
 2090              		.thumb
 2091              		.syntax unified
 2092              	.L414:
 2093 0012 FEE7     		b	.L414
 2094              	.L413:
 2095 0014 234E     		ldr	r6, .L433
 2096 0016 3368     		ldr	r3, [r6]
 2097 0018 002B     		cmp	r3, #0
ARM GAS  /tmp/ccSQ6G3A.s 			page 37


 2098 001a 12D1     		bne	.L430
 2099 001c 3368     		ldr	r3, [r6]
 2100 001e 2249     		ldr	r1, .L433+4
 2101 0020 0133     		adds	r3, r3, #1
 2102 0022 0268     		ldr	r2, [r0]
 2103 0024 3360     		str	r3, [r6]
 2104 0026 0D68     		ldr	r5, [r1]
 2105 0028 1419     		adds	r4, r2, r4
 2106 002a 0460     		str	r4, [r0]
 2107 002c AA42     		cmp	r2, r5
 2108 002e 11D9     		bls	.L417
 2109 0030 A242     		cmp	r2, r4
 2110 0032 11D8     		bhi	.L428
 2111              	.L419:
 2112 0034 3368     		ldr	r3, [r6]
 2113 0036 002B     		cmp	r3, #0
 2114 0038 05D1     		bne	.L425
 2115              		.syntax divided
 2116              	@ 2106 "Middlewares/Third_Party/FreeRTOS/Source/tasks.c" 1
 2117 003a 72B6     		 cpsid i 
 2118              	@ 0 "" 2
 2119              		.thumb
 2120              		.syntax unified
 2121              	.L426:
 2122 003c FEE7     		b	.L426
 2123              	.L429:
 2124              		.syntax divided
 2125              	@ 1203 "Middlewares/Third_Party/FreeRTOS/Source/tasks.c" 1
 2126 003e 72B6     		 cpsid i 
 2127              	@ 0 "" 2
 2128              		.thumb
 2129              		.syntax unified
 2130              	.L412:
 2131 0040 FEE7     		b	.L412
 2132              	.L430:
 2133              		.syntax divided
 2134              	@ 1205 "Middlewares/Third_Party/FreeRTOS/Source/tasks.c" 1
 2135 0042 72B6     		 cpsid i 
 2136              	@ 0 "" 2
 2137              		.thumb
 2138              		.syntax unified
 2139              	.L416:
 2140 0044 FEE7     		b	.L416
 2141              	.L425:
 2142 0046 FFF7FEFF 		bl	xTaskResumeAll.part.0
 2143 004a 0028     		cmp	r0, #0
 2144 004c 1FD0     		beq	.L431
 2145              	.L410:
 2146              		@ sp needed
 2147 004e 04BC     		pop	{r2}
 2148 0050 9046     		mov	r8, r2
 2149 0052 F0BD     		pop	{r4, r5, r6, r7, pc}
 2150              	.L417:
 2151 0054 A242     		cmp	r2, r4
 2152 0056 01D8     		bhi	.L421
 2153              	.L428:
 2154 0058 A542     		cmp	r5, r4
ARM GAS  /tmp/ccSQ6G3A.s 			page 38


 2155 005a EBD2     		bcs	.L419
 2156              	.L421:
 2157 005c 0B68     		ldr	r3, [r1]
 2158 005e 134F     		ldr	r7, .L433+8
 2159 0060 9846     		mov	r8, r3
 2160 0062 3868     		ldr	r0, [r7]
 2161 0064 5D1B     		subs	r5, r3, r5
 2162 0066 0430     		adds	r0, r0, #4
 2163 0068 FFF7FEFF 		bl	uxListRemove
 2164 006c 3B68     		ldr	r3, [r7]
 2165 006e 6419     		adds	r4, r4, r5
 2166 0070 5C60     		str	r4, [r3, #4]
 2167 0072 A045     		cmp	r8, r4
 2168 0074 0ED8     		bhi	.L432
 2169 0076 0E4B     		ldr	r3, .L433+12
 2170 0078 1868     		ldr	r0, [r3]
 2171 007a 3968     		ldr	r1, [r7]
 2172 007c 0431     		adds	r1, r1, #4
 2173 007e FFF7FEFF 		bl	vListInsert
 2174 0082 0C4B     		ldr	r3, .L433+16
 2175 0084 1A68     		ldr	r2, [r3]
 2176 0086 9442     		cmp	r4, r2
 2177 0088 D4D2     		bcs	.L419
 2178 008a 1C60     		str	r4, [r3]
 2179 008c D2E7     		b	.L419
 2180              	.L431:
 2181 008e FFF7FEFF 		bl	vPortYield
 2182 0092 DCE7     		b	.L410
 2183              	.L432:
 2184 0094 084B     		ldr	r3, .L433+20
 2185 0096 1868     		ldr	r0, [r3]
 2186 0098 3968     		ldr	r1, [r7]
 2187 009a 0431     		adds	r1, r1, #4
 2188 009c FFF7FEFF 		bl	vListInsert
 2189 00a0 C8E7     		b	.L419
 2190              	.L434:
 2191 00a2 C046     		.align	2
 2192              	.L433:
 2193 00a4 00000000 		.word	.LANCHOR14
 2194 00a8 00000000 		.word	.LANCHOR16
 2195 00ac 00000000 		.word	.LANCHOR1
 2196 00b0 00000000 		.word	.LANCHOR7
 2197 00b4 00000000 		.word	.LANCHOR13
 2198 00b8 00000000 		.word	.LANCHOR8
 2200              		.section	.text.vTaskDelay,"ax",%progbits
 2201              		.align	1
 2202              		.p2align 2,,3
 2203              		.global	vTaskDelay
 2204              		.syntax unified
 2205              		.code	16
 2206              		.thumb_func
 2207              		.fpu softvfp
 2209              	vTaskDelay:
 2210              		@ args = 0, pretend = 0, frame = 0
 2211              		@ frame_needed = 0, uses_anonymous_args = 0
 2212 0000 F8B5     		push	{r3, r4, r5, r6, r7, lr}
 2213 0002 041E     		subs	r4, r0, #0
ARM GAS  /tmp/ccSQ6G3A.s 			page 39


 2214 0004 09D0     		beq	.L444
 2215 0006 194E     		ldr	r6, .L448
 2216 0008 3368     		ldr	r3, [r6]
 2217 000a 002B     		cmp	r3, #0
 2218 000c 08D0     		beq	.L438
 2219              		.syntax divided
 2220              	@ 1289 "Middlewares/Third_Party/FreeRTOS/Source/tasks.c" 1
 2221 000e 72B6     		 cpsid i 
 2222              	@ 0 "" 2
 2223              		.thumb
 2224              		.syntax unified
 2225              	.L439:
 2226 0010 FEE7     		b	.L439
 2227              	.L442:
 2228 0012 FFF7FEFF 		bl	xTaskResumeAll.part.0
 2229 0016 0028     		cmp	r0, #0
 2230 0018 01D1     		bne	.L435
 2231              	.L444:
 2232 001a FFF7FEFF 		bl	vPortYield
 2233              	.L435:
 2234              		@ sp needed
 2235 001e F8BD     		pop	{r3, r4, r5, r6, r7, pc}
 2236              	.L438:
 2237 0020 3368     		ldr	r3, [r6]
 2238 0022 134D     		ldr	r5, .L448+4
 2239 0024 0133     		adds	r3, r3, #1
 2240 0026 3360     		str	r3, [r6]
 2241 0028 124B     		ldr	r3, .L448+8
 2242 002a 1F68     		ldr	r7, [r3]
 2243 002c 2868     		ldr	r0, [r5]
 2244 002e E419     		adds	r4, r4, r7
 2245 0030 0430     		adds	r0, r0, #4
 2246 0032 FFF7FEFF 		bl	uxListRemove
 2247 0036 2B68     		ldr	r3, [r5]
 2248 0038 5C60     		str	r4, [r3, #4]
 2249 003a A742     		cmp	r7, r4
 2250 003c 0AD9     		bls	.L440
 2251 003e 0E4B     		ldr	r3, .L448+12
 2252 0040 1868     		ldr	r0, [r3]
 2253 0042 2968     		ldr	r1, [r5]
 2254 0044 0431     		adds	r1, r1, #4
 2255 0046 FFF7FEFF 		bl	vListInsert
 2256              	.L441:
 2257 004a 3368     		ldr	r3, [r6]
 2258 004c 002B     		cmp	r3, #0
 2259 004e E0D1     		bne	.L442
 2260              		.syntax divided
 2261              	@ 2106 "Middlewares/Third_Party/FreeRTOS/Source/tasks.c" 1
 2262 0050 72B6     		 cpsid i 
 2263              	@ 0 "" 2
 2264              		.thumb
 2265              		.syntax unified
 2266              	.L443:
 2267 0052 FEE7     		b	.L443
 2268              	.L440:
 2269 0054 094B     		ldr	r3, .L448+16
 2270 0056 1868     		ldr	r0, [r3]
ARM GAS  /tmp/ccSQ6G3A.s 			page 40


 2271 0058 2968     		ldr	r1, [r5]
 2272 005a 0431     		adds	r1, r1, #4
 2273 005c FFF7FEFF 		bl	vListInsert
 2274 0060 074B     		ldr	r3, .L448+20
 2275 0062 1A68     		ldr	r2, [r3]
 2276 0064 9442     		cmp	r4, r2
 2277 0066 F0D2     		bcs	.L441
 2278 0068 1C60     		str	r4, [r3]
 2279 006a EEE7     		b	.L441
 2280              	.L449:
 2281              		.align	2
 2282              	.L448:
 2283 006c 00000000 		.word	.LANCHOR14
 2284 0070 00000000 		.word	.LANCHOR1
 2285 0074 00000000 		.word	.LANCHOR16
 2286 0078 00000000 		.word	.LANCHOR8
 2287 007c 00000000 		.word	.LANCHOR7
 2288 0080 00000000 		.word	.LANCHOR13
 2290              		.section	.text.prvListTasksWithinSingleList.part.0,"ax",%progbits
 2291              		.align	1
 2292              		.p2align 2,,3
 2293              		.syntax unified
 2294              		.code	16
 2295              		.thumb_func
 2296              		.fpu softvfp
 2298              	prvListTasksWithinSingleList.part.0:
 2299              		@ args = 0, pretend = 0, frame = 8
 2300              		@ frame_needed = 0, uses_anonymous_args = 0
 2301 0000 F0B5     		push	{r4, r5, r6, r7, lr}
 2302 0002 5746     		mov	r7, r10
 2303 0004 4E46     		mov	r6, r9
 2304 0006 DE46     		mov	lr, fp
 2305 0008 4546     		mov	r5, r8
 2306 000a E0B5     		push	{r5, r6, r7, lr}
 2307 000c 83B0     		sub	sp, sp, #12
 2308 000e 0192     		str	r2, [sp, #4]
 2309 0010 0822     		movs	r2, #8
 2310 0012 9146     		mov	r9, r2
 2311 0014 4B68     		ldr	r3, [r1, #4]
 2312 0016 8944     		add	r9, r9, r1
 2313 0018 5B68     		ldr	r3, [r3, #4]
 2314 001a 0400     		movs	r4, r0
 2315 001c 0F00     		movs	r7, r1
 2316 001e 4B45     		cmp	r3, r9
 2317 0020 6AD0     		beq	.L472
 2318              	.L451:
 2319 0022 DA68     		ldr	r2, [r3, #12]
 2320 0024 5B68     		ldr	r3, [r3, #4]
 2321 0026 0092     		str	r2, [sp]
 2322 0028 0022     		movs	r2, #0
 2323 002a 9046     		mov	r8, r2
 2324 002c 354A     		ldr	r2, .L479
 2325 002e 7B60     		str	r3, [r7, #4]
 2326 0030 9246     		mov	r10, r2
 2327 0032 354A     		ldr	r2, .L479+4
 2328 0034 9346     		mov	fp, r2
 2329 0036 9945     		cmp	r9, r3
ARM GAS  /tmp/ccSQ6G3A.s 			page 41


 2330 0038 2FD0     		beq	.L473
 2331              	.L452:
 2332 003a DE68     		ldr	r6, [r3, #12]
 2333 003c 351E     		subs	r5, r6, #0
 2334 003e 32D0     		beq	.L474
 2335              	.L453:
 2336 0040 2B00     		movs	r3, r5
 2337 0042 3433     		adds	r3, r3, #52
 2338 0044 6360     		str	r3, [r4, #4]
 2339 0046 EB6A     		ldr	r3, [r5, #44]
 2340 0048 2560     		str	r5, [r4]
 2341 004a 2361     		str	r3, [r4, #16]
 2342 004c 6B6C     		ldr	r3, [r5, #68]
 2343 004e 2A6B     		ldr	r2, [r5, #48]
 2344 0050 A360     		str	r3, [r4, #8]
 2345 0052 EB6C     		ldr	r3, [r5, #76]
 2346 0054 E261     		str	r2, [r4, #28]
 2347 0056 6361     		str	r3, [r4, #20]
 2348 0058 0023     		movs	r3, #0
 2349 005a A361     		str	r3, [r4, #24]
 2350 005c 5346     		mov	r3, r10
 2351 005e 1B68     		ldr	r3, [r3]
 2352 0060 AB42     		cmp	r3, r5
 2353 0062 23D0     		beq	.L475
 2354 0064 019B     		ldr	r3, [sp, #4]
 2355 0066 2373     		strb	r3, [r4, #12]
 2356 0068 032B     		cmp	r3, #3
 2357 006a 35D0     		beq	.L476
 2358              	.L454:
 2359 006c 1378     		ldrb	r3, [r2]
 2360 006e A52B     		cmp	r3, #165
 2361 0070 21D1     		bne	.L465
 2362              	.L477:
 2363 0072 0023     		movs	r3, #0
 2364              	.L459:
 2365 0074 0133     		adds	r3, r3, #1
 2366 0076 D15C     		ldrb	r1, [r2, r3]
 2367 0078 A529     		cmp	r1, #165
 2368 007a FBD0     		beq	.L459
 2369 007c 9B08     		lsrs	r3, r3, #2
 2370 007e 9BB2     		uxth	r3, r3
 2371 0080 2384     		strh	r3, [r4, #32]
 2372 0082 0123     		movs	r3, #1
 2373 0084 9C46     		mov	ip, r3
 2374 0086 009B     		ldr	r3, [sp]
 2375 0088 E044     		add	r8, r8, ip
 2376 008a 2434     		adds	r4, r4, #36
 2377 008c B342     		cmp	r3, r6
 2378 008e 1BD0     		beq	.L450
 2379              	.L478:
 2380 0090 7B68     		ldr	r3, [r7, #4]
 2381 0092 5B68     		ldr	r3, [r3, #4]
 2382 0094 7B60     		str	r3, [r7, #4]
 2383 0096 9945     		cmp	r9, r3
 2384 0098 CFD1     		bne	.L452
 2385              	.L473:
 2386 009a 4B46     		mov	r3, r9
ARM GAS  /tmp/ccSQ6G3A.s 			page 42


 2387 009c 5B68     		ldr	r3, [r3, #4]
 2388 009e DE68     		ldr	r6, [r3, #12]
 2389 00a0 7B60     		str	r3, [r7, #4]
 2390 00a2 351E     		subs	r5, r6, #0
 2391 00a4 CCD1     		bne	.L453
 2392              	.L474:
 2393 00a6 5346     		mov	r3, r10
 2394 00a8 1D68     		ldr	r5, [r3]
 2395 00aa C9E7     		b	.L453
 2396              	.L475:
 2397 00ac 0023     		movs	r3, #0
 2398 00ae 2373     		strb	r3, [r4, #12]
 2399 00b0 1378     		ldrb	r3, [r2]
 2400 00b2 A52B     		cmp	r3, #165
 2401 00b4 DDD0     		beq	.L477
 2402              	.L465:
 2403 00b6 0023     		movs	r3, #0
 2404 00b8 2384     		strh	r3, [r4, #32]
 2405 00ba 0123     		movs	r3, #1
 2406 00bc 9C46     		mov	ip, r3
 2407 00be 009B     		ldr	r3, [sp]
 2408 00c0 E044     		add	r8, r8, ip
 2409 00c2 2434     		adds	r4, r4, #36
 2410 00c4 B342     		cmp	r3, r6
 2411 00c6 E3D1     		bne	.L478
 2412              	.L450:
 2413 00c8 4046     		mov	r0, r8
 2414 00ca 03B0     		add	sp, sp, #12
 2415              		@ sp needed
 2416 00cc 3CBC     		pop	{r2, r3, r4, r5}
 2417 00ce 9046     		mov	r8, r2
 2418 00d0 9946     		mov	r9, r3
 2419 00d2 A246     		mov	r10, r4
 2420 00d4 AB46     		mov	fp, r5
 2421 00d6 F0BD     		pop	{r4, r5, r6, r7, pc}
 2422              	.L476:
 2423 00d8 5B46     		mov	r3, fp
 2424 00da 5A46     		mov	r2, fp
 2425 00dc 1B68     		ldr	r3, [r3]
 2426 00de 0133     		adds	r3, r3, #1
 2427 00e0 1360     		str	r3, [r2]
 2428 00e2 AB6A     		ldr	r3, [r5, #40]
 2429 00e4 002B     		cmp	r3, #0
 2430 00e6 01D0     		beq	.L455
 2431 00e8 0223     		movs	r3, #2
 2432 00ea 2373     		strb	r3, [r4, #12]
 2433              	.L455:
 2434 00ec 5B46     		mov	r3, fp
 2435 00ee 1B68     		ldr	r3, [r3]
 2436 00f0 002B     		cmp	r3, #0
 2437 00f2 03D1     		bne	.L456
 2438              		.syntax divided
 2439              	@ 2106 "Middlewares/Third_Party/FreeRTOS/Source/tasks.c" 1
 2440 00f4 72B6     		 cpsid i 
 2441              	@ 0 "" 2
 2442              		.thumb
 2443              		.syntax unified
ARM GAS  /tmp/ccSQ6G3A.s 			page 43


 2444              	.L457:
 2445 00f6 FEE7     		b	.L457
 2446              	.L472:
 2447 00f8 CB68     		ldr	r3, [r1, #12]
 2448 00fa 92E7     		b	.L451
 2449              	.L456:
 2450 00fc FFF7FEFF 		bl	xTaskResumeAll.part.0
 2451 0100 2A6B     		ldr	r2, [r5, #48]
 2452 0102 B3E7     		b	.L454
 2453              	.L480:
 2454              		.align	2
 2455              	.L479:
 2456 0104 00000000 		.word	.LANCHOR1
 2457 0108 00000000 		.word	.LANCHOR14
 2459              		.section	.text.uxTaskGetSystemState,"ax",%progbits
 2460              		.align	1
 2461              		.p2align 2,,3
 2462              		.global	uxTaskGetSystemState
 2463              		.syntax unified
 2464              		.code	16
 2465              		.thumb_func
 2466              		.fpu softvfp
 2468              	uxTaskGetSystemState:
 2469              		@ args = 0, pretend = 0, frame = 16
 2470              		@ frame_needed = 0, uses_anonymous_args = 0
 2471 0000 F0B5     		push	{r4, r5, r6, r7, lr}
 2472 0002 5746     		mov	r7, r10
 2473 0004 DE46     		mov	lr, fp
 2474 0006 4E46     		mov	r6, r9
 2475 0008 4546     		mov	r5, r8
 2476 000a E0B5     		push	{r5, r6, r7, lr}
 2477 000c 644B     		ldr	r3, .L525
 2478 000e 85B0     		sub	sp, sp, #20
 2479 0010 1B68     		ldr	r3, [r3]
 2480 0012 0392     		str	r2, [sp, #12]
 2481 0014 624A     		ldr	r2, .L525
 2482 0016 0133     		adds	r3, r3, #1
 2483 0018 1360     		str	r3, [r2]
 2484 001a 624B     		ldr	r3, .L525+4
 2485 001c 0027     		movs	r7, #0
 2486 001e 1B68     		ldr	r3, [r3]
 2487 0020 0290     		str	r0, [sp, #8]
 2488 0022 8B42     		cmp	r3, r1
 2489 0024 00D9     		bls	.LCB2550
 2490 0026 9EE0     		b	.L482	@long jump
 2491              	.LCB2550:
 2492 0028 5F4B     		ldr	r3, .L525+8
 2493 002a 9C46     		mov	ip, r3
 2494 002c 0423     		movs	r3, #4
 2495 002e 6344     		add	r3, r3, ip
 2496 0030 9846     		mov	r8, r3
 2497 0032 3823     		movs	r3, #56
 2498 0034 9A46     		mov	r10, r3
 2499 0036 5D4B     		ldr	r3, .L525+12
 2500 0038 6546     		mov	r5, ip
 2501 003a 9946     		mov	r9, r3
 2502 003c 4346     		mov	r3, r8
ARM GAS  /tmp/ccSQ6G3A.s 			page 44


 2503 003e BC46     		mov	ip, r7
 2504 0040 0193     		str	r3, [sp, #4]
 2505              	.L490:
 2506 0042 0123     		movs	r3, #1
 2507 0044 5B42     		rsbs	r3, r3, #0
 2508 0046 9846     		mov	r8, r3
 2509 0048 C244     		add	r10, r10, r8
 2510 004a 5346     		mov	r3, r10
 2511 004c 9B00     		lsls	r3, r3, #2
 2512 004e 584A     		ldr	r2, .L525+16
 2513 0050 5344     		add	r3, r3, r10
 2514 0052 9B00     		lsls	r3, r3, #2
 2515 0054 D358     		ldr	r3, [r2, r3]
 2516 0056 002B     		cmp	r3, #0
 2517 0058 3FD0     		beq	.L483
 2518 005a 2B68     		ldr	r3, [r5]
 2519 005c 5968     		ldr	r1, [r3, #4]
 2520 005e 019B     		ldr	r3, [sp, #4]
 2521 0060 8B42     		cmp	r3, r1
 2522 0062 00D1     		bne	.LCB2584
 2523 0064 8FE0     		b	.L522	@long jump
 2524              	.LCB2584:
 2525              	.L484:
 2526 0066 CB68     		ldr	r3, [r1, #12]
 2527 0068 0024     		movs	r4, #0
 2528 006a 9B46     		mov	fp, r3
 2529 006c 6346     		mov	r3, ip
 2530 006e DA00     		lsls	r2, r3, #3
 2531 0070 029B     		ldr	r3, [sp, #8]
 2532 0072 6244     		add	r2, r2, ip
 2533 0074 9846     		mov	r8, r3
 2534 0076 5B46     		mov	r3, fp
 2535 0078 0093     		str	r3, [sp]
 2536 007a 019B     		ldr	r3, [sp, #4]
 2537 007c 9200     		lsls	r2, r2, #2
 2538 007e 9B46     		mov	fp, r3
 2539 0080 4244     		add	r2, r2, r8
 2540              	.L489:
 2541 0082 4968     		ldr	r1, [r1, #4]
 2542 0084 2960     		str	r1, [r5]
 2543 0086 5945     		cmp	r1, fp
 2544 0088 73D0     		beq	.L523
 2545 008a C868     		ldr	r0, [r1, #12]
 2546 008c 031E     		subs	r3, r0, #0
 2547 008e 75D0     		beq	.L524
 2548              	.L486:
 2549 0090 1F00     		movs	r7, r3
 2550 0092 DE6A     		ldr	r6, [r3, #44]
 2551 0094 1360     		str	r3, [r2]
 2552 0096 1661     		str	r6, [r2, #16]
 2553 0098 5E6C     		ldr	r6, [r3, #68]
 2554 009a 3437     		adds	r7, r7, #52
 2555 009c 5760     		str	r7, [r2, #4]
 2556 009e 1F6B     		ldr	r7, [r3, #48]
 2557 00a0 9660     		str	r6, [r2, #8]
 2558 00a2 DE6C     		ldr	r6, [r3, #76]
 2559 00a4 D761     		str	r7, [r2, #28]
ARM GAS  /tmp/ccSQ6G3A.s 			page 45


 2560 00a6 5661     		str	r6, [r2, #20]
 2561 00a8 0026     		movs	r6, #0
 2562 00aa 9661     		str	r6, [r2, #24]
 2563 00ac 4E46     		mov	r6, r9
 2564 00ae 3668     		ldr	r6, [r6]
 2565 00b0 9B1B     		subs	r3, r3, r6
 2566 00b2 5E1E     		subs	r6, r3, #1
 2567 00b4 B341     		sbcs	r3, r3, r6
 2568 00b6 1373     		strb	r3, [r2, #12]
 2569 00b8 3B78     		ldrb	r3, [r7]
 2570 00ba A52B     		cmp	r3, #165
 2571 00bc 61D1     		bne	.L499
 2572 00be 0023     		movs	r3, #0
 2573              	.L488:
 2574 00c0 0133     		adds	r3, r3, #1
 2575 00c2 FE5C     		ldrb	r6, [r7, r3]
 2576 00c4 A52E     		cmp	r6, #165
 2577 00c6 FBD0     		beq	.L488
 2578 00c8 9B08     		lsrs	r3, r3, #2
 2579 00ca 9BB2     		uxth	r3, r3
 2580              	.L487:
 2581 00cc 1384     		strh	r3, [r2, #32]
 2582 00ce 009B     		ldr	r3, [sp]
 2583 00d0 0134     		adds	r4, r4, #1
 2584 00d2 2432     		adds	r2, r2, #36
 2585 00d4 8342     		cmp	r3, r0
 2586 00d6 D4D1     		bne	.L489
 2587 00d8 A444     		add	ip, ip, r4
 2588              	.L483:
 2589 00da 019B     		ldr	r3, [sp, #4]
 2590 00dc 143D     		subs	r5, r5, #20
 2591 00de 143B     		subs	r3, r3, #20
 2592 00e0 0193     		str	r3, [sp, #4]
 2593 00e2 5346     		mov	r3, r10
 2594 00e4 002B     		cmp	r3, #0
 2595 00e6 ACD1     		bne	.L490
 2596 00e8 6746     		mov	r7, ip
 2597 00ea 029C     		ldr	r4, [sp, #8]
 2598 00ec 314B     		ldr	r3, .L525+20
 2599 00ee A446     		mov	ip, r4
 2600 00f0 1968     		ldr	r1, [r3]
 2601 00f2 F800     		lsls	r0, r7, #3
 2602 00f4 C019     		adds	r0, r0, r7
 2603 00f6 0B68     		ldr	r3, [r1]
 2604 00f8 8000     		lsls	r0, r0, #2
 2605 00fa 6044     		add	r0, r0, ip
 2606 00fc 002B     		cmp	r3, #0
 2607 00fe 08D0     		beq	.L491
 2608 0100 0222     		movs	r2, #2
 2609 0102 FFF7FEFF 		bl	prvListTasksWithinSingleList.part.0
 2610 0106 A446     		mov	ip, r4
 2611 0108 3F18     		adds	r7, r7, r0
 2612 010a F800     		lsls	r0, r7, #3
 2613 010c C019     		adds	r0, r0, r7
 2614 010e 8000     		lsls	r0, r0, #2
 2615 0110 6044     		add	r0, r0, ip
 2616              	.L491:
ARM GAS  /tmp/ccSQ6G3A.s 			page 46


 2617 0112 294B     		ldr	r3, .L525+24
 2618 0114 1968     		ldr	r1, [r3]
 2619 0116 0B68     		ldr	r3, [r1]
 2620 0118 002B     		cmp	r3, #0
 2621 011a 09D0     		beq	.L492
 2622 011c 0222     		movs	r2, #2
 2623 011e FFF7FEFF 		bl	prvListTasksWithinSingleList.part.0
 2624 0122 029B     		ldr	r3, [sp, #8]
 2625 0124 3F18     		adds	r7, r7, r0
 2626 0126 9C46     		mov	ip, r3
 2627 0128 F800     		lsls	r0, r7, #3
 2628 012a C019     		adds	r0, r0, r7
 2629 012c 8000     		lsls	r0, r0, #2
 2630 012e 6044     		add	r0, r0, ip
 2631              	.L492:
 2632 0130 2249     		ldr	r1, .L525+28
 2633 0132 0B68     		ldr	r3, [r1]
 2634 0134 002B     		cmp	r3, #0
 2635 0136 09D0     		beq	.L493
 2636 0138 0422     		movs	r2, #4
 2637 013a FFF7FEFF 		bl	prvListTasksWithinSingleList.part.0
 2638 013e 029B     		ldr	r3, [sp, #8]
 2639 0140 3F18     		adds	r7, r7, r0
 2640 0142 9C46     		mov	ip, r3
 2641 0144 F800     		lsls	r0, r7, #3
 2642 0146 C019     		adds	r0, r0, r7
 2643 0148 8000     		lsls	r0, r0, #2
 2644 014a 6044     		add	r0, r0, ip
 2645              	.L493:
 2646 014c 1C49     		ldr	r1, .L525+32
 2647 014e 0B68     		ldr	r3, [r1]
 2648 0150 002B     		cmp	r3, #0
 2649 0152 03D0     		beq	.L494
 2650 0154 0322     		movs	r2, #3
 2651 0156 FFF7FEFF 		bl	prvListTasksWithinSingleList.part.0
 2652 015a 3F18     		adds	r7, r7, r0
 2653              	.L494:
 2654 015c 039A     		ldr	r2, [sp, #12]
 2655 015e 002A     		cmp	r2, #0
 2656 0160 01D0     		beq	.L482
 2657 0162 0023     		movs	r3, #0
 2658 0164 1360     		str	r3, [r2]
 2659              	.L482:
 2660 0166 0E4B     		ldr	r3, .L525
 2661 0168 1B68     		ldr	r3, [r3]
 2662 016a 002B     		cmp	r3, #0
 2663 016c 0DD1     		bne	.L495
 2664              		.syntax divided
 2665              	@ 2106 "Middlewares/Third_Party/FreeRTOS/Source/tasks.c" 1
 2666 016e 72B6     		 cpsid i 
 2667              	@ 0 "" 2
 2668              		.thumb
 2669              		.syntax unified
 2670              	.L496:
 2671 0170 FEE7     		b	.L496
 2672              	.L523:
 2673 0172 4968     		ldr	r1, [r1, #4]
ARM GAS  /tmp/ccSQ6G3A.s 			page 47


 2674 0174 C868     		ldr	r0, [r1, #12]
 2675 0176 2960     		str	r1, [r5]
 2676 0178 031E     		subs	r3, r0, #0
 2677 017a 89D1     		bne	.L486
 2678              	.L524:
 2679 017c 4B46     		mov	r3, r9
 2680 017e 1B68     		ldr	r3, [r3]
 2681 0180 86E7     		b	.L486
 2682              	.L499:
 2683 0182 0023     		movs	r3, #0
 2684 0184 A2E7     		b	.L487
 2685              	.L522:
 2686 0186 A968     		ldr	r1, [r5, #8]
 2687 0188 6DE7     		b	.L484
 2688              	.L495:
 2689 018a FFF7FEFF 		bl	xTaskResumeAll.part.0
 2690 018e 3800     		movs	r0, r7
 2691 0190 05B0     		add	sp, sp, #20
 2692              		@ sp needed
 2693 0192 3CBC     		pop	{r2, r3, r4, r5}
 2694 0194 9046     		mov	r8, r2
 2695 0196 9946     		mov	r9, r3
 2696 0198 A246     		mov	r10, r4
 2697 019a AB46     		mov	fp, r5
 2698 019c F0BD     		pop	{r4, r5, r6, r7, pc}
 2699              	.L526:
 2700 019e C046     		.align	2
 2701              	.L525:
 2702 01a0 00000000 		.word	.LANCHOR14
 2703 01a4 00000000 		.word	.LANCHOR0
 2704 01a8 50040000 		.word	pxReadyTasksLists+1104
 2705 01ac 00000000 		.word	.LANCHOR1
 2706 01b0 00000000 		.word	pxReadyTasksLists
 2707 01b4 00000000 		.word	.LANCHOR7
 2708 01b8 00000000 		.word	.LANCHOR8
 2709 01bc 00000000 		.word	.LANCHOR5
 2710 01c0 00000000 		.word	.LANCHOR6
 2712              		.section	.text.vTaskSwitchContext,"ax",%progbits
 2713              		.align	1
 2714              		.p2align 2,,3
 2715              		.global	vTaskSwitchContext
 2716              		.syntax unified
 2717              		.code	16
 2718              		.thumb_func
 2719              		.fpu softvfp
 2721              	vTaskSwitchContext:
 2722              		@ args = 0, pretend = 0, frame = 0
 2723              		@ frame_needed = 0, uses_anonymous_args = 0
 2724 0000 154B     		ldr	r3, .L544
 2725 0002 30B5     		push	{r4, r5, lr}
 2726 0004 1B68     		ldr	r3, [r3]
 2727 0006 002B     		cmp	r3, #0
 2728 0008 03D0     		beq	.L528
 2729 000a 0122     		movs	r2, #1
 2730 000c 134B     		ldr	r3, .L544+4
 2731 000e 1A60     		str	r2, [r3]
 2732              	.L527:
ARM GAS  /tmp/ccSQ6G3A.s 			page 48


 2733              		@ sp needed
 2734 0010 30BD     		pop	{r4, r5, pc}
 2735              	.L528:
 2736 0012 124A     		ldr	r2, .L544+4
 2737 0014 124D     		ldr	r5, .L544+8
 2738 0016 1360     		str	r3, [r2]
 2739 0018 2A68     		ldr	r2, [r5]
 2740 001a 1248     		ldr	r0, .L544+12
 2741 001c 02E0     		b	.L541
 2742              	.L534:
 2743 001e 002A     		cmp	r2, #0
 2744 0020 15D0     		beq	.L542
 2745 0022 013A     		subs	r2, r2, #1
 2746              	.L541:
 2747 0024 9300     		lsls	r3, r2, #2
 2748 0026 9918     		adds	r1, r3, r2
 2749 0028 8900     		lsls	r1, r1, #2
 2750 002a 4158     		ldr	r1, [r0, r1]
 2751 002c 0029     		cmp	r1, #0
 2752 002e F6D0     		beq	.L534
 2753 0030 9B18     		adds	r3, r3, r2
 2754 0032 9B00     		lsls	r3, r3, #2
 2755 0034 C418     		adds	r4, r0, r3
 2756 0036 6168     		ldr	r1, [r4, #4]
 2757 0038 0833     		adds	r3, r3, #8
 2758 003a 4968     		ldr	r1, [r1, #4]
 2759 003c C318     		adds	r3, r0, r3
 2760 003e 6160     		str	r1, [r4, #4]
 2761 0040 9942     		cmp	r1, r3
 2762 0042 06D0     		beq	.L543
 2763              	.L535:
 2764 0044 C968     		ldr	r1, [r1, #12]
 2765 0046 084B     		ldr	r3, .L544+16
 2766 0048 1960     		str	r1, [r3]
 2767 004a 2A60     		str	r2, [r5]
 2768 004c E0E7     		b	.L527
 2769              	.L542:
 2770              		.syntax divided
 2771              	@ 2890 "Middlewares/Third_Party/FreeRTOS/Source/tasks.c" 1
 2772 004e 72B6     		 cpsid i 
 2773              	@ 0 "" 2
 2774              		.thumb
 2775              		.syntax unified
 2776              	.L533:
 2777 0050 FEE7     		b	.L533
 2778              	.L543:
 2779 0052 4968     		ldr	r1, [r1, #4]
 2780 0054 6160     		str	r1, [r4, #4]
 2781 0056 F5E7     		b	.L535
 2782              	.L545:
 2783              		.align	2
 2784              	.L544:
 2785 0058 00000000 		.word	.LANCHOR14
 2786 005c 00000000 		.word	.LANCHOR15
 2787 0060 00000000 		.word	.LANCHOR11
 2788 0064 00000000 		.word	pxReadyTasksLists
 2789 0068 00000000 		.word	.LANCHOR1
ARM GAS  /tmp/ccSQ6G3A.s 			page 49


 2791              		.section	.text.vTaskPlaceOnEventList,"ax",%progbits
 2792              		.align	1
 2793              		.p2align 2,,3
 2794              		.global	vTaskPlaceOnEventList
 2795              		.syntax unified
 2796              		.code	16
 2797              		.thumb_func
 2798              		.fpu softvfp
 2800              	vTaskPlaceOnEventList:
 2801              		@ args = 0, pretend = 0, frame = 0
 2802              		@ frame_needed = 0, uses_anonymous_args = 0
 2803 0000 70B5     		push	{r4, r5, r6, lr}
 2804 0002 0C00     		movs	r4, r1
 2805 0004 0028     		cmp	r0, #0
 2806 0006 18D0     		beq	.L552
 2807 0008 164D     		ldr	r5, .L554
 2808 000a 2968     		ldr	r1, [r5]
 2809 000c 1831     		adds	r1, r1, #24
 2810 000e FFF7FEFF 		bl	vListInsert
 2811 0012 154B     		ldr	r3, .L554+4
 2812 0014 1E68     		ldr	r6, [r3]
 2813 0016 2868     		ldr	r0, [r5]
 2814 0018 0430     		adds	r0, r0, #4
 2815 001a FFF7FEFF 		bl	uxListRemove
 2816 001e 631C     		adds	r3, r4, #1
 2817 0020 0DD0     		beq	.L553
 2818 0022 2B68     		ldr	r3, [r5]
 2819 0024 A419     		adds	r4, r4, r6
 2820 0026 5C60     		str	r4, [r3, #4]
 2821 0028 A642     		cmp	r6, r4
 2822 002a 0ED9     		bls	.L551
 2823 002c 0F4B     		ldr	r3, .L554+8
 2824 002e 1868     		ldr	r0, [r3]
 2825 0030 2968     		ldr	r1, [r5]
 2826 0032 0431     		adds	r1, r1, #4
 2827 0034 FFF7FEFF 		bl	vListInsert
 2828              	.L546:
 2829              		@ sp needed
 2830 0038 70BD     		pop	{r4, r5, r6, pc}
 2831              	.L552:
 2832              		.syntax divided
 2833              	@ 2906 "Middlewares/Third_Party/FreeRTOS/Source/tasks.c" 1
 2834 003a 72B6     		 cpsid i 
 2835              	@ 0 "" 2
 2836              		.thumb
 2837              		.syntax unified
 2838              	.L548:
 2839 003c FEE7     		b	.L548
 2840              	.L553:
 2841 003e 2968     		ldr	r1, [r5]
 2842 0040 0B48     		ldr	r0, .L554+12
 2843 0042 0431     		adds	r1, r1, #4
 2844 0044 FFF7FEFF 		bl	vListInsertEnd
 2845 0048 F6E7     		b	.L546
 2846              	.L551:
 2847 004a 0A4B     		ldr	r3, .L554+16
 2848 004c 1868     		ldr	r0, [r3]
ARM GAS  /tmp/ccSQ6G3A.s 			page 50


 2849 004e 2968     		ldr	r1, [r5]
 2850 0050 0431     		adds	r1, r1, #4
 2851 0052 FFF7FEFF 		bl	vListInsert
 2852 0056 084B     		ldr	r3, .L554+20
 2853 0058 1A68     		ldr	r2, [r3]
 2854 005a 9442     		cmp	r4, r2
 2855 005c ECD2     		bcs	.L546
 2856 005e 1C60     		str	r4, [r3]
 2857 0060 EAE7     		b	.L546
 2858              	.L555:
 2859 0062 C046     		.align	2
 2860              	.L554:
 2861 0064 00000000 		.word	.LANCHOR1
 2862 0068 00000000 		.word	.LANCHOR16
 2863 006c 00000000 		.word	.LANCHOR8
 2864 0070 00000000 		.word	.LANCHOR6
 2865 0074 00000000 		.word	.LANCHOR7
 2866 0078 00000000 		.word	.LANCHOR13
 2868              		.section	.text.vTaskPlaceOnUnorderedEventList,"ax",%progbits
 2869              		.align	1
 2870              		.p2align 2,,3
 2871              		.global	vTaskPlaceOnUnorderedEventList
 2872              		.syntax unified
 2873              		.code	16
 2874              		.thumb_func
 2875              		.fpu softvfp
 2877              	vTaskPlaceOnUnorderedEventList:
 2878              		@ args = 0, pretend = 0, frame = 0
 2879              		@ frame_needed = 0, uses_anonymous_args = 0
 2880 0000 70B5     		push	{r4, r5, r6, lr}
 2881 0002 1400     		movs	r4, r2
 2882 0004 0028     		cmp	r0, #0
 2883 0006 05D0     		beq	.L564
 2884 0008 1B4B     		ldr	r3, .L566
 2885 000a 1B68     		ldr	r3, [r3]
 2886 000c 002B     		cmp	r3, #0
 2887 000e 03D1     		bne	.L559
 2888              		.syntax divided
 2889              	@ 2927 "Middlewares/Third_Party/FreeRTOS/Source/tasks.c" 1
 2890 0010 72B6     		 cpsid i 
 2891              	@ 0 "" 2
 2892              		.thumb
 2893              		.syntax unified
 2894              	.L560:
 2895 0012 FEE7     		b	.L560
 2896              	.L564:
 2897              		.syntax divided
 2898              	@ 2923 "Middlewares/Third_Party/FreeRTOS/Source/tasks.c" 1
 2899 0014 72B6     		 cpsid i 
 2900              	@ 0 "" 2
 2901              		.thumb
 2902              		.syntax unified
 2903              	.L558:
 2904 0016 FEE7     		b	.L558
 2905              	.L559:
 2906 0018 8023     		movs	r3, #128
 2907 001a 184D     		ldr	r5, .L566+4
ARM GAS  /tmp/ccSQ6G3A.s 			page 51


 2908 001c 1B06     		lsls	r3, r3, #24
 2909 001e 0B43     		orrs	r3, r1
 2910 0020 2A68     		ldr	r2, [r5]
 2911 0022 2968     		ldr	r1, [r5]
 2912 0024 9361     		str	r3, [r2, #24]
 2913 0026 1831     		adds	r1, r1, #24
 2914 0028 FFF7FEFF 		bl	vListInsertEnd
 2915 002c 144B     		ldr	r3, .L566+8
 2916 002e 1E68     		ldr	r6, [r3]
 2917 0030 2868     		ldr	r0, [r5]
 2918 0032 0430     		adds	r0, r0, #4
 2919 0034 FFF7FEFF 		bl	uxListRemove
 2920 0038 631C     		adds	r3, r4, #1
 2921 003a 0BD0     		beq	.L565
 2922 003c 2B68     		ldr	r3, [r5]
 2923 003e A419     		adds	r4, r4, r6
 2924 0040 5C60     		str	r4, [r3, #4]
 2925 0042 A642     		cmp	r6, r4
 2926 0044 0CD9     		bls	.L563
 2927 0046 0F4B     		ldr	r3, .L566+12
 2928 0048 1868     		ldr	r0, [r3]
 2929 004a 2968     		ldr	r1, [r5]
 2930 004c 0431     		adds	r1, r1, #4
 2931 004e FFF7FEFF 		bl	vListInsert
 2932 0052 04E0     		b	.L556
 2933              	.L565:
 2934 0054 2968     		ldr	r1, [r5]
 2935 0056 0C48     		ldr	r0, .L566+16
 2936 0058 0431     		adds	r1, r1, #4
 2937 005a FFF7FEFF 		bl	vListInsertEnd
 2938              	.L556:
 2939              		@ sp needed
 2940 005e 70BD     		pop	{r4, r5, r6, pc}
 2941              	.L563:
 2942 0060 0A4B     		ldr	r3, .L566+20
 2943 0062 1868     		ldr	r0, [r3]
 2944 0064 2968     		ldr	r1, [r5]
 2945 0066 0431     		adds	r1, r1, #4
 2946 0068 FFF7FEFF 		bl	vListInsert
 2947 006c 084B     		ldr	r3, .L566+24
 2948 006e 1A68     		ldr	r2, [r3]
 2949 0070 9442     		cmp	r4, r2
 2950 0072 F4D2     		bcs	.L556
 2951 0074 1C60     		str	r4, [r3]
 2952 0076 F2E7     		b	.L556
 2953              	.L567:
 2954              		.align	2
 2955              	.L566:
 2956 0078 00000000 		.word	.LANCHOR14
 2957 007c 00000000 		.word	.LANCHOR1
 2958 0080 00000000 		.word	.LANCHOR16
 2959 0084 00000000 		.word	.LANCHOR8
 2960 0088 00000000 		.word	.LANCHOR6
 2961 008c 00000000 		.word	.LANCHOR7
 2962 0090 00000000 		.word	.LANCHOR13
 2964              		.section	.text.vTaskPlaceOnEventListRestricted,"ax",%progbits
 2965              		.align	1
ARM GAS  /tmp/ccSQ6G3A.s 			page 52


 2966              		.p2align 2,,3
 2967              		.global	vTaskPlaceOnEventListRestricted
 2968              		.syntax unified
 2969              		.code	16
 2970              		.thumb_func
 2971              		.fpu softvfp
 2973              	vTaskPlaceOnEventListRestricted:
 2974              		@ args = 0, pretend = 0, frame = 0
 2975              		@ frame_needed = 0, uses_anonymous_args = 0
 2976 0000 70B5     		push	{r4, r5, r6, lr}
 2977 0002 0C00     		movs	r4, r1
 2978 0004 1600     		movs	r6, r2
 2979 0006 0028     		cmp	r0, #0
 2980 0008 23D0     		beq	.L574
 2981 000a 194D     		ldr	r5, .L576
 2982 000c 2968     		ldr	r1, [r5]
 2983 000e 1831     		adds	r1, r1, #24
 2984 0010 FFF7FEFF 		bl	vListInsertEnd
 2985 0014 174B     		ldr	r3, .L576+4
 2986 0016 002E     		cmp	r6, #0
 2987 0018 10D1     		bne	.L575
 2988 001a 1E68     		ldr	r6, [r3]
 2989 001c 2868     		ldr	r0, [r5]
 2990 001e A419     		adds	r4, r4, r6
 2991 0020 0430     		adds	r0, r0, #4
 2992 0022 FFF7FEFF 		bl	uxListRemove
 2993 0026 2B68     		ldr	r3, [r5]
 2994 0028 5C60     		str	r4, [r3, #4]
 2995 002a A642     		cmp	r6, r4
 2996 002c 13D9     		bls	.L573
 2997 002e 124B     		ldr	r3, .L576+8
 2998 0030 1868     		ldr	r0, [r3]
 2999 0032 2968     		ldr	r1, [r5]
 3000 0034 0431     		adds	r1, r1, #4
 3001 0036 FFF7FEFF 		bl	vListInsert
 3002              	.L568:
 3003              		@ sp needed
 3004 003a 70BD     		pop	{r4, r5, r6, pc}
 3005              	.L575:
 3006 003c 1B68     		ldr	r3, [r3]
 3007 003e 2868     		ldr	r0, [r5]
 3008 0040 0430     		adds	r0, r0, #4
 3009 0042 FFF7FEFF 		bl	uxListRemove
 3010 0046 2968     		ldr	r1, [r5]
 3011 0048 0C48     		ldr	r0, .L576+12
 3012 004a 0431     		adds	r1, r1, #4
 3013 004c FFF7FEFF 		bl	vListInsertEnd
 3014 0050 F3E7     		b	.L568
 3015              	.L574:
 3016              		.syntax divided
 3017              	@ 2949 "Middlewares/Third_Party/FreeRTOS/Source/tasks.c" 1
 3018 0052 72B6     		 cpsid i 
 3019              	@ 0 "" 2
 3020              		.thumb
 3021              		.syntax unified
 3022              	.L570:
 3023 0054 FEE7     		b	.L570
ARM GAS  /tmp/ccSQ6G3A.s 			page 53


 3024              	.L573:
 3025 0056 0A4B     		ldr	r3, .L576+16
 3026 0058 1868     		ldr	r0, [r3]
 3027 005a 2968     		ldr	r1, [r5]
 3028 005c 0431     		adds	r1, r1, #4
 3029 005e FFF7FEFF 		bl	vListInsert
 3030 0062 084B     		ldr	r3, .L576+20
 3031 0064 1A68     		ldr	r2, [r3]
 3032 0066 9442     		cmp	r4, r2
 3033 0068 E7D2     		bcs	.L568
 3034 006a 1C60     		str	r4, [r3]
 3035 006c E5E7     		b	.L568
 3036              	.L577:
 3037 006e C046     		.align	2
 3038              	.L576:
 3039 0070 00000000 		.word	.LANCHOR1
 3040 0074 00000000 		.word	.LANCHOR16
 3041 0078 00000000 		.word	.LANCHOR8
 3042 007c 00000000 		.word	.LANCHOR6
 3043 0080 00000000 		.word	.LANCHOR7
 3044 0084 00000000 		.word	.LANCHOR13
 3046              		.section	.text.xTaskRemoveFromEventList,"ax",%progbits
 3047              		.align	1
 3048              		.p2align 2,,3
 3049              		.global	xTaskRemoveFromEventList
 3050              		.syntax unified
 3051              		.code	16
 3052              		.thumb_func
 3053              		.fpu softvfp
 3055              	xTaskRemoveFromEventList:
 3056              		@ args = 0, pretend = 0, frame = 0
 3057              		@ frame_needed = 0, uses_anonymous_args = 0
 3058 0000 C368     		ldr	r3, [r0, #12]
 3059 0002 70B5     		push	{r4, r5, r6, lr}
 3060 0004 DC68     		ldr	r4, [r3, #12]
 3061 0006 002C     		cmp	r4, #0
 3062 0008 2BD0     		beq	.L586
 3063 000a 2500     		movs	r5, r4
 3064 000c 1835     		adds	r5, r5, #24
 3065 000e 2800     		movs	r0, r5
 3066 0010 FFF7FEFF 		bl	uxListRemove
 3067 0014 144B     		ldr	r3, .L588
 3068 0016 1B68     		ldr	r3, [r3]
 3069 0018 002B     		cmp	r3, #0
 3070 001a 0FD0     		beq	.L587
 3071 001c 2900     		movs	r1, r5
 3072 001e 1348     		ldr	r0, .L588+4
 3073 0020 FFF7FEFF 		bl	vListInsertEnd
 3074              	.L583:
 3075 0024 124B     		ldr	r3, .L588+8
 3076 0026 E26A     		ldr	r2, [r4, #44]
 3077 0028 1B68     		ldr	r3, [r3]
 3078 002a 0020     		movs	r0, #0
 3079 002c DB6A     		ldr	r3, [r3, #44]
 3080 002e 9A42     		cmp	r2, r3
 3081 0030 03D9     		bls	.L578
 3082 0032 0122     		movs	r2, #1
ARM GAS  /tmp/ccSQ6G3A.s 			page 54


 3083 0034 0F4B     		ldr	r3, .L588+12
 3084 0036 0130     		adds	r0, r0, #1
 3085 0038 1A60     		str	r2, [r3]
 3086              	.L578:
 3087              		@ sp needed
 3088 003a 70BD     		pop	{r4, r5, r6, pc}
 3089              	.L587:
 3090 003c 251D     		adds	r5, r4, #4
 3091 003e 2800     		movs	r0, r5
 3092 0040 FFF7FEFF 		bl	uxListRemove
 3093 0044 0C4A     		ldr	r2, .L588+16
 3094 0046 E36A     		ldr	r3, [r4, #44]
 3095 0048 1168     		ldr	r1, [r2]
 3096 004a 8B42     		cmp	r3, r1
 3097 004c 00D9     		bls	.L582
 3098 004e 1360     		str	r3, [r2]
 3099              	.L582:
 3100 0050 9800     		lsls	r0, r3, #2
 3101 0052 C018     		adds	r0, r0, r3
 3102 0054 094B     		ldr	r3, .L588+20
 3103 0056 8000     		lsls	r0, r0, #2
 3104 0058 2900     		movs	r1, r5
 3105 005a C018     		adds	r0, r0, r3
 3106 005c FFF7FEFF 		bl	vListInsertEnd
 3107 0060 E0E7     		b	.L583
 3108              	.L586:
 3109              		.syntax divided
 3110              	@ 2997 "Middlewares/Third_Party/FreeRTOS/Source/tasks.c" 1
 3111 0062 72B6     		 cpsid i 
 3112              	@ 0 "" 2
 3113              		.thumb
 3114              		.syntax unified
 3115              	.L580:
 3116 0064 FEE7     		b	.L580
 3117              	.L589:
 3118 0066 C046     		.align	2
 3119              	.L588:
 3120 0068 00000000 		.word	.LANCHOR14
 3121 006c 00000000 		.word	.LANCHOR4
 3122 0070 00000000 		.word	.LANCHOR1
 3123 0074 00000000 		.word	.LANCHOR15
 3124 0078 00000000 		.word	.LANCHOR11
 3125 007c 00000000 		.word	pxReadyTasksLists
 3127              		.section	.text.vTaskRemoveFromUnorderedEventList,"ax",%progbits
 3128              		.align	1
 3129              		.p2align 2,,3
 3130              		.global	vTaskRemoveFromUnorderedEventList
 3131              		.syntax unified
 3132              		.code	16
 3133              		.thumb_func
 3134              		.fpu softvfp
 3136              	vTaskRemoveFromUnorderedEventList:
 3137              		@ args = 0, pretend = 0, frame = 0
 3138              		@ frame_needed = 0, uses_anonymous_args = 0
 3139 0000 164B     		ldr	r3, .L598
 3140 0002 70B5     		push	{r4, r5, r6, lr}
 3141 0004 1B68     		ldr	r3, [r3]
ARM GAS  /tmp/ccSQ6G3A.s 			page 55


 3142 0006 002B     		cmp	r3, #0
 3143 0008 01D1     		bne	.L591
 3144              		.syntax divided
 3145              	@ 3052 "Middlewares/Third_Party/FreeRTOS/Source/tasks.c" 1
 3146 000a 72B6     		 cpsid i 
 3147              	@ 0 "" 2
 3148              		.thumb
 3149              		.syntax unified
 3150              	.L592:
 3151 000c FEE7     		b	.L592
 3152              	.L591:
 3153 000e 8023     		movs	r3, #128
 3154 0010 C468     		ldr	r4, [r0, #12]
 3155 0012 1B06     		lsls	r3, r3, #24
 3156 0014 0B43     		orrs	r3, r1
 3157 0016 0360     		str	r3, [r0]
 3158 0018 002C     		cmp	r4, #0
 3159 001a 1DD0     		beq	.L597
 3160 001c 251D     		adds	r5, r4, #4
 3161 001e FFF7FEFF 		bl	uxListRemove
 3162 0022 2800     		movs	r0, r5
 3163 0024 FFF7FEFF 		bl	uxListRemove
 3164 0028 0D4A     		ldr	r2, .L598+4
 3165 002a E36A     		ldr	r3, [r4, #44]
 3166 002c 1168     		ldr	r1, [r2]
 3167 002e 8B42     		cmp	r3, r1
 3168 0030 00D9     		bls	.L595
 3169 0032 1360     		str	r3, [r2]
 3170              	.L595:
 3171 0034 9800     		lsls	r0, r3, #2
 3172 0036 C018     		adds	r0, r0, r3
 3173 0038 0A4B     		ldr	r3, .L598+8
 3174 003a 8000     		lsls	r0, r0, #2
 3175 003c C018     		adds	r0, r0, r3
 3176 003e 2900     		movs	r1, r5
 3177 0040 FFF7FEFF 		bl	vListInsertEnd
 3178 0044 084B     		ldr	r3, .L598+12
 3179 0046 E26A     		ldr	r2, [r4, #44]
 3180 0048 1B68     		ldr	r3, [r3]
 3181 004a DB6A     		ldr	r3, [r3, #44]
 3182 004c 9A42     		cmp	r2, r3
 3183 004e 02D9     		bls	.L590
 3184 0050 0122     		movs	r2, #1
 3185 0052 064B     		ldr	r3, .L598+16
 3186 0054 1A60     		str	r2, [r3]
 3187              	.L590:
 3188              		@ sp needed
 3189 0056 70BD     		pop	{r4, r5, r6, pc}
 3190              	.L597:
 3191              		.syntax divided
 3192              	@ 3060 "Middlewares/Third_Party/FreeRTOS/Source/tasks.c" 1
 3193 0058 72B6     		 cpsid i 
 3194              	@ 0 "" 2
 3195              		.thumb
 3196              		.syntax unified
 3197              	.L594:
 3198 005a FEE7     		b	.L594
ARM GAS  /tmp/ccSQ6G3A.s 			page 56


 3199              	.L599:
 3200              		.align	2
 3201              	.L598:
 3202 005c 00000000 		.word	.LANCHOR14
 3203 0060 00000000 		.word	.LANCHOR11
 3204 0064 00000000 		.word	pxReadyTasksLists
 3205 0068 00000000 		.word	.LANCHOR1
 3206 006c 00000000 		.word	.LANCHOR15
 3208              		.section	.text.vTaskSetTimeOutState,"ax",%progbits
 3209              		.align	1
 3210              		.p2align 2,,3
 3211              		.global	vTaskSetTimeOutState
 3212              		.syntax unified
 3213              		.code	16
 3214              		.thumb_func
 3215              		.fpu softvfp
 3217              	vTaskSetTimeOutState:
 3218              		@ args = 0, pretend = 0, frame = 0
 3219              		@ frame_needed = 0, uses_anonymous_args = 0
 3220 0000 10B5     		push	{r4, lr}
 3221 0002 041E     		subs	r4, r0, #0
 3222 0004 0AD0     		beq	.L603
 3223 0006 FFF7FEFF 		bl	vPortEnterCritical
 3224 000a 054B     		ldr	r3, .L604
 3225              		@ sp needed
 3226 000c 1B68     		ldr	r3, [r3]
 3227 000e 2360     		str	r3, [r4]
 3228 0010 044B     		ldr	r3, .L604+4
 3229 0012 1B68     		ldr	r3, [r3]
 3230 0014 6360     		str	r3, [r4, #4]
 3231 0016 FFF7FEFF 		bl	vPortExitCritical
 3232 001a 10BD     		pop	{r4, pc}
 3233              	.L603:
 3234              		.syntax divided
 3235              	@ 3082 "Middlewares/Third_Party/FreeRTOS/Source/tasks.c" 1
 3236 001c 72B6     		 cpsid i 
 3237              	@ 0 "" 2
 3238              		.thumb
 3239              		.syntax unified
 3240              	.L602:
 3241 001e FEE7     		b	.L602
 3242              	.L605:
 3243              		.align	2
 3244              	.L604:
 3245 0020 00000000 		.word	.LANCHOR17
 3246 0024 00000000 		.word	.LANCHOR16
 3248              		.section	.text.vTaskInternalSetTimeOutState,"ax",%progbits
 3249              		.align	1
 3250              		.p2align 2,,3
 3251              		.global	vTaskInternalSetTimeOutState
 3252              		.syntax unified
 3253              		.code	16
 3254              		.thumb_func
 3255              		.fpu softvfp
 3257              	vTaskInternalSetTimeOutState:
 3258              		@ args = 0, pretend = 0, frame = 0
 3259              		@ frame_needed = 0, uses_anonymous_args = 0
ARM GAS  /tmp/ccSQ6G3A.s 			page 57


 3260              		@ link register save eliminated.
 3261 0000 034B     		ldr	r3, .L607
 3262              		@ sp needed
 3263 0002 1B68     		ldr	r3, [r3]
 3264 0004 0360     		str	r3, [r0]
 3265 0006 034B     		ldr	r3, .L607+4
 3266 0008 1B68     		ldr	r3, [r3]
 3267 000a 4360     		str	r3, [r0, #4]
 3268 000c 7047     		bx	lr
 3269              	.L608:
 3270 000e C046     		.align	2
 3271              	.L607:
 3272 0010 00000000 		.word	.LANCHOR17
 3273 0014 00000000 		.word	.LANCHOR16
 3275              		.section	.text.xTaskCheckForTimeOut,"ax",%progbits
 3276              		.align	1
 3277              		.p2align 2,,3
 3278              		.global	xTaskCheckForTimeOut
 3279              		.syntax unified
 3280              		.code	16
 3281              		.thumb_func
 3282              		.fpu softvfp
 3284              	xTaskCheckForTimeOut:
 3285              		@ args = 0, pretend = 0, frame = 0
 3286              		@ frame_needed = 0, uses_anonymous_args = 0
 3287 0000 F8B5     		push	{r3, r4, r5, r6, r7, lr}
 3288 0002 0400     		movs	r4, r0
 3289 0004 0D00     		movs	r5, r1
 3290 0006 0028     		cmp	r0, #0
 3291 0008 24D0     		beq	.L619
 3292 000a 0029     		cmp	r1, #0
 3293 000c 20D0     		beq	.L620
 3294 000e FFF7FEFF 		bl	vPortEnterCritical
 3295 0012 144B     		ldr	r3, .L621
 3296 0014 9C46     		mov	ip, r3
 3297 0016 1968     		ldr	r1, [r3]
 3298 0018 2B68     		ldr	r3, [r5]
 3299 001a 5A1C     		adds	r2, r3, #1
 3300 001c 1CD0     		beq	.L617
 3301 001e 124F     		ldr	r7, .L621+4
 3302 0020 2068     		ldr	r0, [r4]
 3303 0022 3E68     		ldr	r6, [r7]
 3304 0024 6268     		ldr	r2, [r4, #4]
 3305 0026 B042     		cmp	r0, r6
 3306 0028 02D0     		beq	.L615
 3307 002a 0126     		movs	r6, #1
 3308 002c 8A42     		cmp	r2, r1
 3309 002e 0BD9     		bls	.L614
 3310              	.L615:
 3311 0030 8E1A     		subs	r6, r1, r2
 3312 0032 B342     		cmp	r3, r6
 3313 0034 12D9     		bls	.L616
 3314 0036 5B1A     		subs	r3, r3, r1
 3315 0038 9B18     		adds	r3, r3, r2
 3316 003a 2B60     		str	r3, [r5]
 3317 003c 3B68     		ldr	r3, [r7]
 3318 003e 0026     		movs	r6, #0
ARM GAS  /tmp/ccSQ6G3A.s 			page 58


 3319 0040 2360     		str	r3, [r4]
 3320 0042 6346     		mov	r3, ip
 3321 0044 1B68     		ldr	r3, [r3]
 3322 0046 6360     		str	r3, [r4, #4]
 3323              	.L614:
 3324 0048 FFF7FEFF 		bl	vPortExitCritical
 3325              		@ sp needed
 3326 004c 3000     		movs	r0, r6
 3327 004e F8BD     		pop	{r3, r4, r5, r6, r7, pc}
 3328              	.L620:
 3329              		.syntax divided
 3330              	@ 3105 "Middlewares/Third_Party/FreeRTOS/Source/tasks.c" 1
 3331 0050 72B6     		 cpsid i 
 3332              	@ 0 "" 2
 3333              		.thumb
 3334              		.syntax unified
 3335              	.L613:
 3336 0052 FEE7     		b	.L613
 3337              	.L619:
 3338              		.syntax divided
 3339              	@ 3104 "Middlewares/Third_Party/FreeRTOS/Source/tasks.c" 1
 3340 0054 72B6     		 cpsid i 
 3341              	@ 0 "" 2
 3342              		.thumb
 3343              		.syntax unified
 3344              	.L611:
 3345 0056 FEE7     		b	.L611
 3346              	.L617:
 3347 0058 0026     		movs	r6, #0
 3348 005a F5E7     		b	.L614
 3349              	.L616:
 3350 005c 0023     		movs	r3, #0
 3351 005e 0126     		movs	r6, #1
 3352 0060 2B60     		str	r3, [r5]
 3353 0062 F1E7     		b	.L614
 3354              	.L622:
 3355              		.align	2
 3356              	.L621:
 3357 0064 00000000 		.word	.LANCHOR16
 3358 0068 00000000 		.word	.LANCHOR17
 3360              		.section	.text.vTaskMissedYield,"ax",%progbits
 3361              		.align	1
 3362              		.p2align 2,,3
 3363              		.global	vTaskMissedYield
 3364              		.syntax unified
 3365              		.code	16
 3366              		.thumb_func
 3367              		.fpu softvfp
 3369              	vTaskMissedYield:
 3370              		@ args = 0, pretend = 0, frame = 0
 3371              		@ frame_needed = 0, uses_anonymous_args = 0
 3372              		@ link register save eliminated.
 3373 0000 0122     		movs	r2, #1
 3374 0002 014B     		ldr	r3, .L624
 3375              		@ sp needed
 3376 0004 1A60     		str	r2, [r3]
 3377 0006 7047     		bx	lr
ARM GAS  /tmp/ccSQ6G3A.s 			page 59


 3378              	.L625:
 3379              		.align	2
 3380              	.L624:
 3381 0008 00000000 		.word	.LANCHOR15
 3383              		.section	.text.uxTaskGetTaskNumber,"ax",%progbits
 3384              		.align	1
 3385              		.p2align 2,,3
 3386              		.global	uxTaskGetTaskNumber
 3387              		.syntax unified
 3388              		.code	16
 3389              		.thumb_func
 3390              		.fpu softvfp
 3392              	uxTaskGetTaskNumber:
 3393              		@ args = 0, pretend = 0, frame = 0
 3394              		@ frame_needed = 0, uses_anonymous_args = 0
 3395              		@ link register save eliminated.
 3396 0000 0028     		cmp	r0, #0
 3397 0002 01D0     		beq	.L628
 3398 0004 806C     		ldr	r0, [r0, #72]
 3399              	.L626:
 3400              		@ sp needed
 3401 0006 7047     		bx	lr
 3402              	.L628:
 3403 0008 0020     		movs	r0, #0
 3404 000a FCE7     		b	.L626
 3406              		.section	.text.vTaskSetTaskNumber,"ax",%progbits
 3407              		.align	1
 3408              		.p2align 2,,3
 3409              		.global	vTaskSetTaskNumber
 3410              		.syntax unified
 3411              		.code	16
 3412              		.thumb_func
 3413              		.fpu softvfp
 3415              	vTaskSetTaskNumber:
 3416              		@ args = 0, pretend = 0, frame = 0
 3417              		@ frame_needed = 0, uses_anonymous_args = 0
 3418              		@ link register save eliminated.
 3419 0000 0028     		cmp	r0, #0
 3420 0002 00D0     		beq	.L629
 3421 0004 8164     		str	r1, [r0, #72]
 3422              	.L629:
 3423              		@ sp needed
 3424 0006 7047     		bx	lr
 3426              		.section	.text.vTaskGetInfo,"ax",%progbits
 3427              		.align	1
 3428              		.p2align 2,,3
 3429              		.global	vTaskGetInfo
 3430              		.syntax unified
 3431              		.code	16
 3432              		.thumb_func
 3433              		.fpu softvfp
 3435              	vTaskGetInfo:
 3436              		@ args = 0, pretend = 0, frame = 0
 3437              		@ frame_needed = 0, uses_anonymous_args = 0
 3438 0000 F8B5     		push	{r3, r4, r5, r6, r7, lr}
 3439 0002 1700     		movs	r7, r2
 3440 0004 0400     		movs	r4, r0
ARM GAS  /tmp/ccSQ6G3A.s 			page 60


 3441 0006 0D00     		movs	r5, r1
 3442 0008 354A     		ldr	r2, .L665
 3443 000a 0028     		cmp	r0, #0
 3444 000c 44D0     		beq	.L661
 3445              	.L635:
 3446 000e 2100     		movs	r1, r4
 3447 0010 3431     		adds	r1, r1, #52
 3448 0012 6960     		str	r1, [r5, #4]
 3449 0014 E16A     		ldr	r1, [r4, #44]
 3450 0016 1268     		ldr	r2, [r2]
 3451 0018 2961     		str	r1, [r5, #16]
 3452 001a 216B     		ldr	r1, [r4, #48]
 3453 001c 2C60     		str	r4, [r5]
 3454 001e E961     		str	r1, [r5, #28]
 3455 0020 616C     		ldr	r1, [r4, #68]
 3456 0022 A960     		str	r1, [r5, #8]
 3457 0024 E16C     		ldr	r1, [r4, #76]
 3458 0026 6961     		str	r1, [r5, #20]
 3459 0028 0021     		movs	r1, #0
 3460 002a A961     		str	r1, [r5, #24]
 3461 002c 052B     		cmp	r3, #5
 3462 002e 15D0     		beq	.L636
 3463 0030 A242     		cmp	r2, r4
 3464 0032 33D0     		beq	.L662
 3465 0034 2B73     		strb	r3, [r5, #12]
 3466 0036 032B     		cmp	r3, #3
 3467 0038 35D0     		beq	.L663
 3468              	.L638:
 3469 003a 002F     		cmp	r7, #0
 3470 003c 0CD0     		beq	.L644
 3471 003e 216B     		ldr	r1, [r4, #48]
 3472 0040 0B78     		ldrb	r3, [r1]
 3473 0042 A52B     		cmp	r3, #165
 3474 0044 46D1     		bne	.L654
 3475 0046 0023     		movs	r3, #0
 3476              	.L646:
 3477 0048 0133     		adds	r3, r3, #1
 3478 004a CA5C     		ldrb	r2, [r1, r3]
 3479 004c A52A     		cmp	r2, #165
 3480 004e FBD0     		beq	.L646
 3481 0050 9B08     		lsrs	r3, r3, #2
 3482 0052 9BB2     		uxth	r3, r3
 3483              	.L645:
 3484 0054 2B84     		strh	r3, [r5, #32]
 3485              	.L634:
 3486              		@ sp needed
 3487 0056 F8BD     		pop	{r3, r4, r5, r6, r7, pc}
 3488              	.L644:
 3489 0058 2F84     		strh	r7, [r5, #32]
 3490 005a FCE7     		b	.L634
 3491              	.L636:
 3492 005c 0023     		movs	r3, #0
 3493 005e 9442     		cmp	r4, r2
 3494 0060 18D0     		beq	.L642
 3495 0062 FFF7FEFF 		bl	vPortEnterCritical
 3496 0066 6669     		ldr	r6, [r4, #20]
 3497 0068 FFF7FEFF 		bl	vPortExitCritical
ARM GAS  /tmp/ccSQ6G3A.s 			page 61


 3498 006c 1D4B     		ldr	r3, .L665+4
 3499 006e 1B68     		ldr	r3, [r3]
 3500 0070 9E42     		cmp	r6, r3
 3501 0072 15D0     		beq	.L650
 3502 0074 1C4B     		ldr	r3, .L665+8
 3503 0076 1B68     		ldr	r3, [r3]
 3504 0078 9E42     		cmp	r6, r3
 3505 007a 11D0     		beq	.L650
 3506 007c 1B4B     		ldr	r3, .L665+12
 3507 007e 9E42     		cmp	r6, r3
 3508 0080 22D0     		beq	.L664
 3509 0082 1B4B     		ldr	r3, .L665+16
 3510 0084 9E42     		cmp	r6, r3
 3511 0086 27D0     		beq	.L652
 3512 0088 7342     		rsbs	r3, r6, #0
 3513 008a 5E41     		adcs	r6, r6, r3
 3514 008c 0323     		movs	r3, #3
 3515 008e 7642     		rsbs	r6, r6, #0
 3516 0090 3340     		ands	r3, r6
 3517 0092 0133     		adds	r3, r3, #1
 3518              	.L642:
 3519 0094 2B73     		strb	r3, [r5, #12]
 3520 0096 D0E7     		b	.L638
 3521              	.L661:
 3522 0098 1468     		ldr	r4, [r2]
 3523 009a B8E7     		b	.L635
 3524              	.L662:
 3525 009c 2973     		strb	r1, [r5, #12]
 3526 009e CCE7     		b	.L638
 3527              	.L650:
 3528 00a0 0223     		movs	r3, #2
 3529 00a2 2B73     		strb	r3, [r5, #12]
 3530 00a4 C9E7     		b	.L638
 3531              	.L663:
 3532 00a6 134B     		ldr	r3, .L665+20
 3533 00a8 1A68     		ldr	r2, [r3]
 3534 00aa 0132     		adds	r2, r2, #1
 3535 00ac 1A60     		str	r2, [r3]
 3536 00ae A26A     		ldr	r2, [r4, #40]
 3537 00b0 002A     		cmp	r2, #0
 3538 00b2 01D0     		beq	.L639
 3539 00b4 0222     		movs	r2, #2
 3540 00b6 2A73     		strb	r2, [r5, #12]
 3541              	.L639:
 3542 00b8 1B68     		ldr	r3, [r3]
 3543 00ba 002B     		cmp	r3, #0
 3544 00bc 01D1     		bne	.L640
 3545              		.syntax divided
 3546              	@ 2106 "Middlewares/Third_Party/FreeRTOS/Source/tasks.c" 1
 3547 00be 72B6     		 cpsid i 
 3548              	@ 0 "" 2
 3549              		.thumb
 3550              		.syntax unified
 3551              	.L641:
 3552 00c0 FEE7     		b	.L641
 3553              	.L640:
 3554 00c2 FFF7FEFF 		bl	xTaskResumeAll.part.0
ARM GAS  /tmp/ccSQ6G3A.s 			page 62


 3555 00c6 B8E7     		b	.L638
 3556              	.L664:
 3557 00c8 A36A     		ldr	r3, [r4, #40]
 3558 00ca 5A42     		rsbs	r2, r3, #0
 3559 00cc 5341     		adcs	r3, r3, r2
 3560 00ce 0233     		adds	r3, r3, #2
 3561 00d0 2B73     		strb	r3, [r5, #12]
 3562 00d2 B2E7     		b	.L638
 3563              	.L654:
 3564 00d4 0023     		movs	r3, #0
 3565 00d6 BDE7     		b	.L645
 3566              	.L652:
 3567 00d8 0423     		movs	r3, #4
 3568 00da 2B73     		strb	r3, [r5, #12]
 3569 00dc ADE7     		b	.L638
 3570              	.L666:
 3571 00de C046     		.align	2
 3572              	.L665:
 3573 00e0 00000000 		.word	.LANCHOR1
 3574 00e4 00000000 		.word	.LANCHOR7
 3575 00e8 00000000 		.word	.LANCHOR8
 3576 00ec 00000000 		.word	.LANCHOR6
 3577 00f0 00000000 		.word	.LANCHOR5
 3578 00f4 00000000 		.word	.LANCHOR14
 3580              		.section	.text.uxTaskGetStackHighWaterMark,"ax",%progbits
 3581              		.align	1
 3582              		.p2align 2,,3
 3583              		.global	uxTaskGetStackHighWaterMark
 3584              		.syntax unified
 3585              		.code	16
 3586              		.thumb_func
 3587              		.fpu softvfp
 3589              	uxTaskGetStackHighWaterMark:
 3590              		@ args = 0, pretend = 0, frame = 0
 3591              		@ frame_needed = 0, uses_anonymous_args = 0
 3592              		@ link register save eliminated.
 3593 0000 0028     		cmp	r0, #0
 3594 0002 0BD0     		beq	.L674
 3595              	.L668:
 3596 0004 026B     		ldr	r2, [r0, #48]
 3597 0006 0020     		movs	r0, #0
 3598 0008 1378     		ldrb	r3, [r2]
 3599 000a A52B     		cmp	r3, #165
 3600 000c 05D1     		bne	.L667
 3601              	.L670:
 3602 000e 0130     		adds	r0, r0, #1
 3603 0010 135C     		ldrb	r3, [r2, r0]
 3604 0012 A52B     		cmp	r3, #165
 3605 0014 FBD0     		beq	.L670
 3606 0016 8003     		lsls	r0, r0, #14
 3607 0018 000C     		lsrs	r0, r0, #16
 3608              	.L667:
 3609              		@ sp needed
 3610 001a 7047     		bx	lr
 3611              	.L674:
 3612 001c 014B     		ldr	r3, .L675
 3613 001e 1868     		ldr	r0, [r3]
ARM GAS  /tmp/ccSQ6G3A.s 			page 63


 3614 0020 F0E7     		b	.L668
 3615              	.L676:
 3616 0022 C046     		.align	2
 3617              	.L675:
 3618 0024 00000000 		.word	.LANCHOR1
 3620              		.section	.text.xTaskGetCurrentTaskHandle,"ax",%progbits
 3621              		.align	1
 3622              		.p2align 2,,3
 3623              		.global	xTaskGetCurrentTaskHandle
 3624              		.syntax unified
 3625              		.code	16
 3626              		.thumb_func
 3627              		.fpu softvfp
 3629              	xTaskGetCurrentTaskHandle:
 3630              		@ args = 0, pretend = 0, frame = 0
 3631              		@ frame_needed = 0, uses_anonymous_args = 0
 3632              		@ link register save eliminated.
 3633 0000 014B     		ldr	r3, .L678
 3634              		@ sp needed
 3635 0002 1868     		ldr	r0, [r3]
 3636 0004 7047     		bx	lr
 3637              	.L679:
 3638 0006 C046     		.align	2
 3639              	.L678:
 3640 0008 00000000 		.word	.LANCHOR1
 3642              		.section	.text.xTaskGetSchedulerState,"ax",%progbits
 3643              		.align	1
 3644              		.p2align 2,,3
 3645              		.global	xTaskGetSchedulerState
 3646              		.syntax unified
 3647              		.code	16
 3648              		.thumb_func
 3649              		.fpu softvfp
 3651              	xTaskGetSchedulerState:
 3652              		@ args = 0, pretend = 0, frame = 0
 3653              		@ frame_needed = 0, uses_anonymous_args = 0
 3654              		@ link register save eliminated.
 3655 0000 054B     		ldr	r3, .L685
 3656 0002 0120     		movs	r0, #1
 3657 0004 1B68     		ldr	r3, [r3]
 3658 0006 002B     		cmp	r3, #0
 3659 0008 04D0     		beq	.L680
 3660 000a 044B     		ldr	r3, .L685+4
 3661 000c 1868     		ldr	r0, [r3]
 3662 000e 4342     		rsbs	r3, r0, #0
 3663 0010 5841     		adcs	r0, r0, r3
 3664 0012 4000     		lsls	r0, r0, #1
 3665              	.L680:
 3666              		@ sp needed
 3667 0014 7047     		bx	lr
 3668              	.L686:
 3669 0016 C046     		.align	2
 3670              	.L685:
 3671 0018 00000000 		.word	.LANCHOR9
 3672 001c 00000000 		.word	.LANCHOR14
 3674              		.section	.text.xTaskPriorityInherit,"ax",%progbits
 3675              		.align	1
ARM GAS  /tmp/ccSQ6G3A.s 			page 64


 3676              		.p2align 2,,3
 3677              		.global	xTaskPriorityInherit
 3678              		.syntax unified
 3679              		.code	16
 3680              		.thumb_func
 3681              		.fpu softvfp
 3683              	xTaskPriorityInherit:
 3684              		@ args = 0, pretend = 0, frame = 0
 3685              		@ frame_needed = 0, uses_anonymous_args = 0
 3686 0000 F8B5     		push	{r3, r4, r5, r6, r7, lr}
 3687 0002 041E     		subs	r4, r0, #0
 3688 0004 21D0     		beq	.L694
 3689 0006 1C4D     		ldr	r5, .L696
 3690 0008 C26A     		ldr	r2, [r0, #44]
 3691 000a 2B68     		ldr	r3, [r5]
 3692 000c DB6A     		ldr	r3, [r3, #44]
 3693 000e 9A42     		cmp	r2, r3
 3694 0010 14D2     		bcs	.L689
 3695 0012 8369     		ldr	r3, [r0, #24]
 3696 0014 002B     		cmp	r3, #0
 3697 0016 04DB     		blt	.L690
 3698 0018 2B68     		ldr	r3, [r5]
 3699 001a D96A     		ldr	r1, [r3, #44]
 3700 001c 3823     		movs	r3, #56
 3701 001e 5B1A     		subs	r3, r3, r1
 3702 0020 8361     		str	r3, [r0, #24]
 3703              	.L690:
 3704 0022 9300     		lsls	r3, r2, #2
 3705 0024 9B18     		adds	r3, r3, r2
 3706 0026 154E     		ldr	r6, .L696+4
 3707 0028 9B00     		lsls	r3, r3, #2
 3708 002a 6269     		ldr	r2, [r4, #20]
 3709 002c F318     		adds	r3, r6, r3
 3710 002e 9A42     		cmp	r2, r3
 3711 0030 0DD0     		beq	.L695
 3712 0032 2B68     		ldr	r3, [r5]
 3713 0034 0120     		movs	r0, #1
 3714 0036 DB6A     		ldr	r3, [r3, #44]
 3715 0038 E362     		str	r3, [r4, #44]
 3716 003a 05E0     		b	.L687
 3717              	.L689:
 3718 003c 2B68     		ldr	r3, [r5]
 3719 003e C06C     		ldr	r0, [r0, #76]
 3720 0040 DB6A     		ldr	r3, [r3, #44]
 3721 0042 9842     		cmp	r0, r3
 3722 0044 8041     		sbcs	r0, r0, r0
 3723 0046 4042     		rsbs	r0, r0, #0
 3724              	.L687:
 3725              		@ sp needed
 3726 0048 F8BD     		pop	{r3, r4, r5, r6, r7, pc}
 3727              	.L694:
 3728 004a 0020     		movs	r0, #0
 3729 004c FCE7     		b	.L687
 3730              	.L695:
 3731 004e 271D     		adds	r7, r4, #4
 3732 0050 3800     		movs	r0, r7
 3733 0052 FFF7FEFF 		bl	uxListRemove
ARM GAS  /tmp/ccSQ6G3A.s 			page 65


 3734 0056 2B68     		ldr	r3, [r5]
 3735 0058 094A     		ldr	r2, .L696+8
 3736 005a DB6A     		ldr	r3, [r3, #44]
 3737 005c 1168     		ldr	r1, [r2]
 3738 005e E362     		str	r3, [r4, #44]
 3739 0060 8B42     		cmp	r3, r1
 3740 0062 00D9     		bls	.L693
 3741 0064 1360     		str	r3, [r2]
 3742              	.L693:
 3743 0066 9800     		lsls	r0, r3, #2
 3744 0068 C018     		adds	r0, r0, r3
 3745 006a 8000     		lsls	r0, r0, #2
 3746 006c 3018     		adds	r0, r6, r0
 3747 006e 3900     		movs	r1, r7
 3748 0070 FFF7FEFF 		bl	vListInsertEnd
 3749 0074 0120     		movs	r0, #1
 3750 0076 E7E7     		b	.L687
 3751              	.L697:
 3752              		.align	2
 3753              	.L696:
 3754 0078 00000000 		.word	.LANCHOR1
 3755 007c 00000000 		.word	pxReadyTasksLists
 3756 0080 00000000 		.word	.LANCHOR11
 3758              		.section	.text.xTaskPriorityDisinherit,"ax",%progbits
 3759              		.align	1
 3760              		.p2align 2,,3
 3761              		.global	xTaskPriorityDisinherit
 3762              		.syntax unified
 3763              		.code	16
 3764              		.thumb_func
 3765              		.fpu softvfp
 3767              	xTaskPriorityDisinherit:
 3768              		@ args = 0, pretend = 0, frame = 0
 3769              		@ frame_needed = 0, uses_anonymous_args = 0
 3770 0000 70B5     		push	{r4, r5, r6, lr}
 3771 0002 0028     		cmp	r0, #0
 3772 0004 10D0     		beq	.L705
 3773 0006 164B     		ldr	r3, .L709
 3774 0008 1C68     		ldr	r4, [r3]
 3775 000a 8442     		cmp	r4, r0
 3776 000c 01D0     		beq	.L701
 3777              		.syntax divided
 3778              	@ 3893 "Middlewares/Third_Party/FreeRTOS/Source/tasks.c" 1
 3779 000e 72B6     		 cpsid i 
 3780              	@ 0 "" 2
 3781              		.thumb
 3782              		.syntax unified
 3783              	.L702:
 3784 0010 FEE7     		b	.L702
 3785              	.L701:
 3786 0012 236D     		ldr	r3, [r4, #80]
 3787 0014 002B     		cmp	r3, #0
 3788 0016 09D0     		beq	.L707
 3789 0018 E26A     		ldr	r2, [r4, #44]
 3790 001a E16C     		ldr	r1, [r4, #76]
 3791 001c 013B     		subs	r3, r3, #1
 3792 001e 2365     		str	r3, [r4, #80]
ARM GAS  /tmp/ccSQ6G3A.s 			page 66


 3793 0020 8A42     		cmp	r2, r1
 3794 0022 01D0     		beq	.L705
 3795 0024 002B     		cmp	r3, #0
 3796 0026 03D0     		beq	.L708
 3797              	.L705:
 3798 0028 0020     		movs	r0, #0
 3799              	.L698:
 3800              		@ sp needed
 3801 002a 70BD     		pop	{r4, r5, r6, pc}
 3802              	.L707:
 3803              		.syntax divided
 3804              	@ 3894 "Middlewares/Third_Party/FreeRTOS/Source/tasks.c" 1
 3805 002c 72B6     		 cpsid i 
 3806              	@ 0 "" 2
 3807              		.thumb
 3808              		.syntax unified
 3809              	.L704:
 3810 002e FEE7     		b	.L704
 3811              	.L708:
 3812 0030 251D     		adds	r5, r4, #4
 3813 0032 2800     		movs	r0, r5
 3814 0034 FFF7FEFF 		bl	uxListRemove
 3815 0038 3822     		movs	r2, #56
 3816 003a E36C     		ldr	r3, [r4, #76]
 3817 003c D21A     		subs	r2, r2, r3
 3818 003e A261     		str	r2, [r4, #24]
 3819 0040 084A     		ldr	r2, .L709+4
 3820 0042 E362     		str	r3, [r4, #44]
 3821 0044 1168     		ldr	r1, [r2]
 3822 0046 8B42     		cmp	r3, r1
 3823 0048 00D9     		bls	.L706
 3824 004a 1360     		str	r3, [r2]
 3825              	.L706:
 3826 004c 9800     		lsls	r0, r3, #2
 3827 004e C018     		adds	r0, r0, r3
 3828 0050 054B     		ldr	r3, .L709+8
 3829 0052 8000     		lsls	r0, r0, #2
 3830 0054 C018     		adds	r0, r0, r3
 3831 0056 2900     		movs	r1, r5
 3832 0058 FFF7FEFF 		bl	vListInsertEnd
 3833 005c 0120     		movs	r0, #1
 3834 005e E4E7     		b	.L698
 3835              	.L710:
 3836              		.align	2
 3837              	.L709:
 3838 0060 00000000 		.word	.LANCHOR1
 3839 0064 00000000 		.word	.LANCHOR11
 3840 0068 00000000 		.word	pxReadyTasksLists
 3842              		.section	.text.vTaskPriorityDisinheritAfterTimeout,"ax",%progbits
 3843              		.align	1
 3844              		.p2align 2,,3
 3845              		.global	vTaskPriorityDisinheritAfterTimeout
 3846              		.syntax unified
 3847              		.code	16
 3848              		.thumb_func
 3849              		.fpu softvfp
 3851              	vTaskPriorityDisinheritAfterTimeout:
ARM GAS  /tmp/ccSQ6G3A.s 			page 67


 3852              		@ args = 0, pretend = 0, frame = 0
 3853              		@ frame_needed = 0, uses_anonymous_args = 0
 3854 0000 70B5     		push	{r4, r5, r6, lr}
 3855 0002 041E     		subs	r4, r0, #0
 3856 0004 31D0     		beq	.L711
 3857 0006 036D     		ldr	r3, [r0, #80]
 3858 0008 002B     		cmp	r3, #0
 3859 000a 01D1     		bne	.L714
 3860              		.syntax divided
 3861              	@ 3972 "Middlewares/Third_Party/FreeRTOS/Source/tasks.c" 1
 3862 000c 72B6     		 cpsid i 
 3863              	@ 0 "" 2
 3864              		.thumb
 3865              		.syntax unified
 3866              	.L715:
 3867 000e FEE7     		b	.L715
 3868              	.L714:
 3869 0010 C26C     		ldr	r2, [r0, #76]
 3870 0012 8A42     		cmp	r2, r1
 3871 0014 00D2     		bcs	.L716
 3872 0016 0A00     		movs	r2, r1
 3873              	.L716:
 3874 0018 E16A     		ldr	r1, [r4, #44]
 3875 001a 9142     		cmp	r1, r2
 3876 001c 25D0     		beq	.L711
 3877 001e 012B     		cmp	r3, #1
 3878 0020 23D1     		bne	.L711
 3879 0022 134B     		ldr	r3, .L723
 3880 0024 1B68     		ldr	r3, [r3]
 3881 0026 A342     		cmp	r3, r4
 3882 0028 20D0     		beq	.L722
 3883 002a A369     		ldr	r3, [r4, #24]
 3884 002c E262     		str	r2, [r4, #44]
 3885 002e 002B     		cmp	r3, #0
 3886 0030 02DB     		blt	.L720
 3887 0032 3823     		movs	r3, #56
 3888 0034 9A1A     		subs	r2, r3, r2
 3889 0036 A261     		str	r2, [r4, #24]
 3890              	.L720:
 3891 0038 8B00     		lsls	r3, r1, #2
 3892 003a 0E4D     		ldr	r5, .L723+4
 3893 003c 5B18     		adds	r3, r3, r1
 3894 003e 9B00     		lsls	r3, r3, #2
 3895 0040 6269     		ldr	r2, [r4, #20]
 3896 0042 EB18     		adds	r3, r5, r3
 3897 0044 9A42     		cmp	r2, r3
 3898 0046 10D1     		bne	.L711
 3899 0048 261D     		adds	r6, r4, #4
 3900 004a 3000     		movs	r0, r6
 3901 004c FFF7FEFF 		bl	uxListRemove
 3902 0050 094A     		ldr	r2, .L723+8
 3903 0052 E36A     		ldr	r3, [r4, #44]
 3904 0054 1168     		ldr	r1, [r2]
 3905 0056 8B42     		cmp	r3, r1
 3906 0058 00D9     		bls	.L721
 3907 005a 1360     		str	r3, [r2]
 3908              	.L721:
ARM GAS  /tmp/ccSQ6G3A.s 			page 68


 3909 005c 9800     		lsls	r0, r3, #2
 3910 005e C018     		adds	r0, r0, r3
 3911 0060 8000     		lsls	r0, r0, #2
 3912 0062 3100     		movs	r1, r6
 3913 0064 2818     		adds	r0, r5, r0
 3914 0066 FFF7FEFF 		bl	vListInsertEnd
 3915              	.L711:
 3916              		@ sp needed
 3917 006a 70BD     		pop	{r4, r5, r6, pc}
 3918              	.L722:
 3919              		.syntax divided
 3920              	@ 3999 "Middlewares/Third_Party/FreeRTOS/Source/tasks.c" 1
 3921 006c 72B6     		 cpsid i 
 3922              	@ 0 "" 2
 3923              		.thumb
 3924              		.syntax unified
 3925              	.L719:
 3926 006e FEE7     		b	.L719
 3927              	.L724:
 3928              		.align	2
 3929              	.L723:
 3930 0070 00000000 		.word	.LANCHOR1
 3931 0074 00000000 		.word	pxReadyTasksLists
 3932 0078 00000000 		.word	.LANCHOR11
 3934              		.section	.text.uxTaskResetEventItemValue,"ax",%progbits
 3935              		.align	1
 3936              		.p2align 2,,3
 3937              		.global	uxTaskResetEventItemValue
 3938              		.syntax unified
 3939              		.code	16
 3940              		.thumb_func
 3941              		.fpu softvfp
 3943              	uxTaskResetEventItemValue:
 3944              		@ args = 0, pretend = 0, frame = 0
 3945              		@ frame_needed = 0, uses_anonymous_args = 0
 3946              		@ link register save eliminated.
 3947 0000 044B     		ldr	r3, .L726
 3948              		@ sp needed
 3949 0002 1A68     		ldr	r2, [r3]
 3950 0004 1968     		ldr	r1, [r3]
 3951 0006 9069     		ldr	r0, [r2, #24]
 3952 0008 1A68     		ldr	r2, [r3]
 3953 000a 3823     		movs	r3, #56
 3954 000c C96A     		ldr	r1, [r1, #44]
 3955 000e 5B1A     		subs	r3, r3, r1
 3956 0010 9361     		str	r3, [r2, #24]
 3957 0012 7047     		bx	lr
 3958              	.L727:
 3959              		.align	2
 3960              	.L726:
 3961 0014 00000000 		.word	.LANCHOR1
 3963              		.section	.text.pvTaskIncrementMutexHeldCount,"ax",%progbits
 3964              		.align	1
 3965              		.p2align 2,,3
 3966              		.global	pvTaskIncrementMutexHeldCount
 3967              		.syntax unified
 3968              		.code	16
ARM GAS  /tmp/ccSQ6G3A.s 			page 69


 3969              		.thumb_func
 3970              		.fpu softvfp
 3972              	pvTaskIncrementMutexHeldCount:
 3973              		@ args = 0, pretend = 0, frame = 0
 3974              		@ frame_needed = 0, uses_anonymous_args = 0
 3975              		@ link register save eliminated.
 3976 0000 044B     		ldr	r3, .L733
 3977 0002 1A68     		ldr	r2, [r3]
 3978 0004 002A     		cmp	r2, #0
 3979 0006 03D0     		beq	.L729
 3980 0008 1968     		ldr	r1, [r3]
 3981 000a 0A6D     		ldr	r2, [r1, #80]
 3982 000c 0132     		adds	r2, r2, #1
 3983 000e 0A65     		str	r2, [r1, #80]
 3984              	.L729:
 3985 0010 1868     		ldr	r0, [r3]
 3986              		@ sp needed
 3987 0012 7047     		bx	lr
 3988              	.L734:
 3989              		.align	2
 3990              	.L733:
 3991 0014 00000000 		.word	.LANCHOR1
 3993              		.section	.text.ulTaskNotifyTake,"ax",%progbits
 3994              		.align	1
 3995              		.p2align 2,,3
 3996              		.global	ulTaskNotifyTake
 3997              		.syntax unified
 3998              		.code	16
 3999              		.thumb_func
 4000              		.fpu softvfp
 4002              	ulTaskNotifyTake:
 4003              		@ args = 0, pretend = 0, frame = 0
 4004              		@ frame_needed = 0, uses_anonymous_args = 0
 4005 0000 F8B5     		push	{r3, r4, r5, r6, r7, lr}
 4006 0002 0600     		movs	r6, r0
 4007 0004 0D00     		movs	r5, r1
 4008 0006 FFF7FEFF 		bl	vPortEnterCritical
 4009 000a 254C     		ldr	r4, .L752
 4010 000c 2368     		ldr	r3, [r4]
 4011 000e 5B6D     		ldr	r3, [r3, #84]
 4012 0010 002B     		cmp	r3, #0
 4013 0012 05D1     		bne	.L737
 4014 0014 0121     		movs	r1, #1
 4015 0016 2268     		ldr	r2, [r4]
 4016 0018 5833     		adds	r3, r3, #88
 4017 001a D154     		strb	r1, [r2, r3]
 4018 001c 002D     		cmp	r5, #0
 4019 001e 17D1     		bne	.L750
 4020              	.L737:
 4021 0020 FFF7FEFF 		bl	vPortExitCritical
 4022 0024 FFF7FEFF 		bl	vPortEnterCritical
 4023 0028 2368     		ldr	r3, [r4]
 4024 002a 5D6D     		ldr	r5, [r3, #84]
 4025 002c 002D     		cmp	r5, #0
 4026 002e 04D0     		beq	.L742
 4027 0030 2368     		ldr	r3, [r4]
 4028 0032 002E     		cmp	r6, #0
ARM GAS  /tmp/ccSQ6G3A.s 			page 70


 4029 0034 09D0     		beq	.L743
 4030 0036 0022     		movs	r2, #0
 4031 0038 5A65     		str	r2, [r3, #84]
 4032              	.L742:
 4033 003a 5823     		movs	r3, #88
 4034 003c 0021     		movs	r1, #0
 4035 003e 2268     		ldr	r2, [r4]
 4036              		@ sp needed
 4037 0040 D154     		strb	r1, [r2, r3]
 4038 0042 FFF7FEFF 		bl	vPortExitCritical
 4039 0046 2800     		movs	r0, r5
 4040 0048 F8BD     		pop	{r3, r4, r5, r6, r7, pc}
 4041              	.L743:
 4042 004a 6A1E     		subs	r2, r5, #1
 4043 004c 5A65     		str	r2, [r3, #84]
 4044 004e F4E7     		b	.L742
 4045              	.L750:
 4046 0050 144B     		ldr	r3, .L752+4
 4047 0052 1F68     		ldr	r7, [r3]
 4048 0054 2068     		ldr	r0, [r4]
 4049 0056 0430     		adds	r0, r0, #4
 4050 0058 FFF7FEFF 		bl	uxListRemove
 4051 005c 6B1C     		adds	r3, r5, #1
 4052 005e 0DD0     		beq	.L751
 4053 0060 2368     		ldr	r3, [r4]
 4054 0062 ED19     		adds	r5, r5, r7
 4055 0064 5D60     		str	r5, [r3, #4]
 4056 0066 AF42     		cmp	r7, r5
 4057 0068 0ED9     		bls	.L741
 4058 006a 0F4B     		ldr	r3, .L752+8
 4059 006c 1868     		ldr	r0, [r3]
 4060 006e 2168     		ldr	r1, [r4]
 4061 0070 0431     		adds	r1, r1, #4
 4062 0072 FFF7FEFF 		bl	vListInsert
 4063              	.L740:
 4064 0076 FFF7FEFF 		bl	vPortYield
 4065 007a D1E7     		b	.L737
 4066              	.L751:
 4067 007c 2168     		ldr	r1, [r4]
 4068 007e 0B48     		ldr	r0, .L752+12
 4069 0080 0431     		adds	r1, r1, #4
 4070 0082 FFF7FEFF 		bl	vListInsertEnd
 4071 0086 F6E7     		b	.L740
 4072              	.L741:
 4073 0088 094B     		ldr	r3, .L752+16
 4074 008a 1868     		ldr	r0, [r3]
 4075 008c 2168     		ldr	r1, [r4]
 4076 008e 0431     		adds	r1, r1, #4
 4077 0090 FFF7FEFF 		bl	vListInsert
 4078 0094 074B     		ldr	r3, .L752+20
 4079 0096 1A68     		ldr	r2, [r3]
 4080 0098 9542     		cmp	r5, r2
 4081 009a ECD2     		bcs	.L740
 4082 009c 1D60     		str	r5, [r3]
 4083 009e EAE7     		b	.L740
 4084              	.L753:
 4085              		.align	2
ARM GAS  /tmp/ccSQ6G3A.s 			page 71


 4086              	.L752:
 4087 00a0 00000000 		.word	.LANCHOR1
 4088 00a4 00000000 		.word	.LANCHOR16
 4089 00a8 00000000 		.word	.LANCHOR8
 4090 00ac 00000000 		.word	.LANCHOR6
 4091 00b0 00000000 		.word	.LANCHOR7
 4092 00b4 00000000 		.word	.LANCHOR13
 4094              		.section	.text.xTaskNotifyWait,"ax",%progbits
 4095              		.align	1
 4096              		.p2align 2,,3
 4097              		.global	xTaskNotifyWait
 4098              		.syntax unified
 4099              		.code	16
 4100              		.thumb_func
 4101              		.fpu softvfp
 4103              	xTaskNotifyWait:
 4104              		@ args = 0, pretend = 0, frame = 0
 4105              		@ frame_needed = 0, uses_anonymous_args = 0
 4106 0000 F0B5     		push	{r4, r5, r6, r7, lr}
 4107 0002 C646     		mov	lr, r8
 4108 0004 00B5     		push	{lr}
 4109 0006 1500     		movs	r5, r2
 4110 0008 1E00     		movs	r6, r3
 4111 000a 0700     		movs	r7, r0
 4112 000c 8846     		mov	r8, r1
 4113 000e FFF7FEFF 		bl	vPortEnterCritical
 4114 0012 5823     		movs	r3, #88
 4115 0014 2A4C     		ldr	r4, .L772
 4116 0016 2268     		ldr	r2, [r4]
 4117 0018 D25C     		ldrb	r2, [r2, r3]
 4118 001a 022A     		cmp	r2, #2
 4119 001c 08D0     		beq	.L756
 4120 001e 2168     		ldr	r1, [r4]
 4121 0020 4A6D     		ldr	r2, [r1, #84]
 4122 0022 BA43     		bics	r2, r7
 4123 0024 4A65     		str	r2, [r1, #84]
 4124 0026 0121     		movs	r1, #1
 4125 0028 2268     		ldr	r2, [r4]
 4126 002a D154     		strb	r1, [r2, r3]
 4127 002c 002E     		cmp	r6, #0
 4128 002e 1ED1     		bne	.L770
 4129              	.L756:
 4130 0030 FFF7FEFF 		bl	vPortExitCritical
 4131 0034 FFF7FEFF 		bl	vPortEnterCritical
 4132 0038 002D     		cmp	r5, #0
 4133 003a 02D0     		beq	.L761
 4134 003c 2368     		ldr	r3, [r4]
 4135 003e 5B6D     		ldr	r3, [r3, #84]
 4136 0040 2B60     		str	r3, [r5]
 4137              	.L761:
 4138 0042 5823     		movs	r3, #88
 4139 0044 2268     		ldr	r2, [r4]
 4140 0046 0025     		movs	r5, #0
 4141 0048 D35C     		ldrb	r3, [r2, r3]
 4142 004a 022B     		cmp	r3, #2
 4143 004c 05D1     		bne	.L762
 4144 004e 4146     		mov	r1, r8
ARM GAS  /tmp/ccSQ6G3A.s 			page 72


 4145 0050 2268     		ldr	r2, [r4]
 4146 0052 0135     		adds	r5, r5, #1
 4147 0054 536D     		ldr	r3, [r2, #84]
 4148 0056 8B43     		bics	r3, r1
 4149 0058 5365     		str	r3, [r2, #84]
 4150              	.L762:
 4151 005a 5823     		movs	r3, #88
 4152 005c 0021     		movs	r1, #0
 4153 005e 2268     		ldr	r2, [r4]
 4154              		@ sp needed
 4155 0060 D154     		strb	r1, [r2, r3]
 4156 0062 FFF7FEFF 		bl	vPortExitCritical
 4157 0066 2800     		movs	r0, r5
 4158 0068 04BC     		pop	{r2}
 4159 006a 9046     		mov	r8, r2
 4160 006c F0BD     		pop	{r4, r5, r6, r7, pc}
 4161              	.L770:
 4162 006e 154B     		ldr	r3, .L772+4
 4163 0070 1F68     		ldr	r7, [r3]
 4164 0072 2068     		ldr	r0, [r4]
 4165 0074 0430     		adds	r0, r0, #4
 4166 0076 FFF7FEFF 		bl	uxListRemove
 4167 007a 731C     		adds	r3, r6, #1
 4168 007c 0DD0     		beq	.L771
 4169 007e 2368     		ldr	r3, [r4]
 4170 0080 F619     		adds	r6, r6, r7
 4171 0082 5E60     		str	r6, [r3, #4]
 4172 0084 B742     		cmp	r7, r6
 4173 0086 0ED9     		bls	.L760
 4174 0088 0F4B     		ldr	r3, .L772+8
 4175 008a 1868     		ldr	r0, [r3]
 4176 008c 2168     		ldr	r1, [r4]
 4177 008e 0431     		adds	r1, r1, #4
 4178 0090 FFF7FEFF 		bl	vListInsert
 4179              	.L759:
 4180 0094 FFF7FEFF 		bl	vPortYield
 4181 0098 CAE7     		b	.L756
 4182              	.L771:
 4183 009a 2168     		ldr	r1, [r4]
 4184 009c 0B48     		ldr	r0, .L772+12
 4185 009e 0431     		adds	r1, r1, #4
 4186 00a0 FFF7FEFF 		bl	vListInsertEnd
 4187 00a4 F6E7     		b	.L759
 4188              	.L760:
 4189 00a6 0A4B     		ldr	r3, .L772+16
 4190 00a8 1868     		ldr	r0, [r3]
 4191 00aa 2168     		ldr	r1, [r4]
 4192 00ac 0431     		adds	r1, r1, #4
 4193 00ae FFF7FEFF 		bl	vListInsert
 4194 00b2 084B     		ldr	r3, .L772+20
 4195 00b4 1A68     		ldr	r2, [r3]
 4196 00b6 9642     		cmp	r6, r2
 4197 00b8 ECD2     		bcs	.L759
 4198 00ba 1E60     		str	r6, [r3]
 4199 00bc EAE7     		b	.L759
 4200              	.L773:
 4201 00be C046     		.align	2
ARM GAS  /tmp/ccSQ6G3A.s 			page 73


 4202              	.L772:
 4203 00c0 00000000 		.word	.LANCHOR1
 4204 00c4 00000000 		.word	.LANCHOR16
 4205 00c8 00000000 		.word	.LANCHOR8
 4206 00cc 00000000 		.word	.LANCHOR6
 4207 00d0 00000000 		.word	.LANCHOR7
 4208 00d4 00000000 		.word	.LANCHOR13
 4210              		.section	.text.xTaskGenericNotify,"ax",%progbits
 4211              		.align	1
 4212              		.p2align 2,,3
 4213              		.global	xTaskGenericNotify
 4214              		.syntax unified
 4215              		.code	16
 4216              		.thumb_func
 4217              		.fpu softvfp
 4219              	xTaskGenericNotify:
 4220              		@ args = 0, pretend = 0, frame = 0
 4221              		@ frame_needed = 0, uses_anonymous_args = 0
 4222 0000 F8B5     		push	{r3, r4, r5, r6, r7, lr}
 4223 0002 0400     		movs	r4, r0
 4224 0004 0E00     		movs	r6, r1
 4225 0006 1500     		movs	r5, r2
 4226 0008 1F00     		movs	r7, r3
 4227 000a 0028     		cmp	r0, #0
 4228 000c 23D0     		beq	.L796
 4229 000e FFF7FEFF 		bl	vPortEnterCritical
 4230 0012 002F     		cmp	r7, #0
 4231 0014 01D0     		beq	.L777
 4232 0016 636D     		ldr	r3, [r4, #84]
 4233 0018 3B60     		str	r3, [r7]
 4234              	.L777:
 4235 001a 5822     		movs	r2, #88
 4236 001c 0221     		movs	r1, #2
 4237 001e A35C     		ldrb	r3, [r4, r2]
 4238 0020 A154     		strb	r1, [r4, r2]
 4239 0022 DBB2     		uxtb	r3, r3
 4240 0024 032D     		cmp	r5, #3
 4241 0026 12D0     		beq	.L794
 4242 0028 0DD8     		bhi	.L779
 4243 002a 012D     		cmp	r5, #1
 4244 002c 15D0     		beq	.L780
 4245 002e 022D     		cmp	r5, #2
 4246 0030 02D1     		bne	.L782
 4247 0032 626D     		ldr	r2, [r4, #84]
 4248 0034 0132     		adds	r2, r2, #1
 4249 0036 6265     		str	r2, [r4, #84]
 4250              	.L782:
 4251 0038 012B     		cmp	r3, #1
 4252 003a 13D0     		beq	.L785
 4253              	.L795:
 4254 003c 0124     		movs	r4, #1
 4255              	.L784:
 4256 003e FFF7FEFF 		bl	vPortExitCritical
 4257              		@ sp needed
 4258 0042 2000     		movs	r0, r4
 4259 0044 F8BD     		pop	{r3, r4, r5, r6, r7, pc}
 4260              	.L779:
ARM GAS  /tmp/ccSQ6G3A.s 			page 74


 4261 0046 042D     		cmp	r5, #4
 4262 0048 F6D1     		bne	.L782
 4263 004a 022B     		cmp	r3, #2
 4264 004c 2AD0     		beq	.L790
 4265              	.L794:
 4266 004e 6665     		str	r6, [r4, #84]
 4267 0050 012B     		cmp	r3, #1
 4268 0052 F3D1     		bne	.L795
 4269 0054 06E0     		b	.L785
 4270              	.L796:
 4271              		.syntax divided
 4272              	@ 4563 "Middlewares/Third_Party/FreeRTOS/Source/tasks.c" 1
 4273 0056 72B6     		 cpsid i 
 4274              	@ 0 "" 2
 4275              		.thumb
 4276              		.syntax unified
 4277              	.L776:
 4278 0058 FEE7     		b	.L776
 4279              	.L780:
 4280 005a 626D     		ldr	r2, [r4, #84]
 4281 005c 1643     		orrs	r6, r2
 4282 005e 6665     		str	r6, [r4, #84]
 4283 0060 012B     		cmp	r3, #1
 4284 0062 EBD1     		bne	.L795
 4285              	.L785:
 4286 0064 251D     		adds	r5, r4, #4
 4287 0066 2800     		movs	r0, r5
 4288 0068 FFF7FEFF 		bl	uxListRemove
 4289 006c 0E4A     		ldr	r2, .L797
 4290 006e E36A     		ldr	r3, [r4, #44]
 4291 0070 1168     		ldr	r1, [r2]
 4292 0072 8B42     		cmp	r3, r1
 4293 0074 00D9     		bls	.L786
 4294 0076 1360     		str	r3, [r2]
 4295              	.L786:
 4296 0078 9800     		lsls	r0, r3, #2
 4297 007a C018     		adds	r0, r0, r3
 4298 007c 0B4B     		ldr	r3, .L797+4
 4299 007e 8000     		lsls	r0, r0, #2
 4300 0080 C018     		adds	r0, r0, r3
 4301 0082 2900     		movs	r1, r5
 4302 0084 FFF7FEFF 		bl	vListInsertEnd
 4303 0088 A36A     		ldr	r3, [r4, #40]
 4304 008a 002B     		cmp	r3, #0
 4305 008c 01D0     		beq	.L787
 4306              		.syntax divided
 4307              	@ 4619 "Middlewares/Third_Party/FreeRTOS/Source/tasks.c" 1
 4308 008e 72B6     		 cpsid i 
 4309              	@ 0 "" 2
 4310              		.thumb
 4311              		.syntax unified
 4312              	.L788:
 4313 0090 FEE7     		b	.L788
 4314              	.L787:
 4315 0092 074B     		ldr	r3, .L797+8
 4316 0094 E26A     		ldr	r2, [r4, #44]
 4317 0096 1B68     		ldr	r3, [r3]
ARM GAS  /tmp/ccSQ6G3A.s 			page 75


 4318 0098 DB6A     		ldr	r3, [r3, #44]
 4319 009a 9A42     		cmp	r2, r3
 4320 009c CED9     		bls	.L795
 4321 009e FFF7FEFF 		bl	vPortYield
 4322 00a2 CBE7     		b	.L795
 4323              	.L790:
 4324 00a4 0024     		movs	r4, #0
 4325 00a6 CAE7     		b	.L784
 4326              	.L798:
 4327              		.align	2
 4328              	.L797:
 4329 00a8 00000000 		.word	.LANCHOR11
 4330 00ac 00000000 		.word	pxReadyTasksLists
 4331 00b0 00000000 		.word	.LANCHOR1
 4333              		.section	.text.xTaskGenericNotifyFromISR,"ax",%progbits
 4334              		.align	1
 4335              		.p2align 2,,3
 4336              		.global	xTaskGenericNotifyFromISR
 4337              		.syntax unified
 4338              		.code	16
 4339              		.thumb_func
 4340              		.fpu softvfp
 4342              	xTaskGenericNotifyFromISR:
 4343              		@ args = 4, pretend = 0, frame = 0
 4344              		@ frame_needed = 0, uses_anonymous_args = 0
 4345 0000 F0B5     		push	{r4, r5, r6, r7, lr}
 4346 0002 CE46     		mov	lr, r9
 4347 0004 0400     		movs	r4, r0
 4348 0006 0D00     		movs	r5, r1
 4349 0008 1600     		movs	r6, r2
 4350 000a 9946     		mov	r9, r3
 4351 000c 00B5     		push	{lr}
 4352 000e 0028     		cmp	r0, #0
 4353 0010 2DD0     		beq	.L824
 4354 0012 FFF7FEFF 		bl	ulSetInterruptMaskFromISR
 4355 0016 4B46     		mov	r3, r9
 4356 0018 0700     		movs	r7, r0
 4357 001a 002B     		cmp	r3, #0
 4358 001c 02D0     		beq	.L802
 4359 001e 4A46     		mov	r2, r9
 4360 0020 636D     		ldr	r3, [r4, #84]
 4361 0022 1360     		str	r3, [r2]
 4362              	.L802:
 4363 0024 5822     		movs	r2, #88
 4364 0026 0221     		movs	r1, #2
 4365 0028 A35C     		ldrb	r3, [r4, r2]
 4366 002a A154     		strb	r1, [r4, r2]
 4367 002c DBB2     		uxtb	r3, r3
 4368 002e 032E     		cmp	r6, #3
 4369 0030 12D0     		beq	.L822
 4370 0032 0DD8     		bhi	.L804
 4371 0034 012E     		cmp	r6, #1
 4372 0036 1CD0     		beq	.L805
 4373 0038 022E     		cmp	r6, #2
 4374 003a 02D1     		bne	.L807
 4375 003c 626D     		ldr	r2, [r4, #84]
 4376 003e 0132     		adds	r2, r2, #1
ARM GAS  /tmp/ccSQ6G3A.s 			page 76


 4377 0040 6265     		str	r2, [r4, #84]
 4378              	.L807:
 4379 0042 012B     		cmp	r3, #1
 4380 0044 0BD1     		bne	.L823
 4381              	.L810:
 4382 0046 A36A     		ldr	r3, [r4, #40]
 4383 0048 002B     		cmp	r3, #0
 4384 004a 16D0     		beq	.L811
 4385              		.syntax divided
 4386              	@ 4741 "Middlewares/Third_Party/FreeRTOS/Source/tasks.c" 1
 4387 004c 72B6     		 cpsid i 
 4388              	@ 0 "" 2
 4389              		.thumb
 4390              		.syntax unified
 4391              	.L812:
 4392 004e FEE7     		b	.L812
 4393              	.L804:
 4394 0050 042E     		cmp	r6, #4
 4395 0052 F6D1     		bne	.L807
 4396 0054 022B     		cmp	r3, #2
 4397 0056 26D0     		beq	.L818
 4398              	.L822:
 4399 0058 6565     		str	r5, [r4, #84]
 4400 005a 012B     		cmp	r3, #1
 4401 005c F3D0     		beq	.L810
 4402              	.L823:
 4403 005e 0124     		movs	r4, #1
 4404              	.L809:
 4405 0060 3800     		movs	r0, r7
 4406 0062 FFF7FEFF 		bl	vClearInterruptMaskFromISR
 4407              		@ sp needed
 4408 0066 2000     		movs	r0, r4
 4409 0068 04BC     		pop	{r2}
 4410 006a 9146     		mov	r9, r2
 4411 006c F0BD     		pop	{r4, r5, r6, r7, pc}
 4412              	.L824:
 4413              		.syntax divided
 4414              	@ 4670 "Middlewares/Third_Party/FreeRTOS/Source/tasks.c" 1
 4415 006e 72B6     		 cpsid i 
 4416              	@ 0 "" 2
 4417              		.thumb
 4418              		.syntax unified
 4419              	.L801:
 4420 0070 FEE7     		b	.L801
 4421              	.L805:
 4422 0072 616D     		ldr	r1, [r4, #84]
 4423 0074 2943     		orrs	r1, r5
 4424 0076 6165     		str	r1, [r4, #84]
 4425 0078 E3E7     		b	.L807
 4426              	.L811:
 4427 007a 184B     		ldr	r3, .L826
 4428 007c 1B68     		ldr	r3, [r3]
 4429 007e 002B     		cmp	r3, #0
 4430 0080 13D0     		beq	.L825
 4431 0082 2100     		movs	r1, r4
 4432 0084 1648     		ldr	r0, .L826+4
 4433 0086 1831     		adds	r1, r1, #24
ARM GAS  /tmp/ccSQ6G3A.s 			page 77


 4434 0088 FFF7FEFF 		bl	vListInsertEnd
 4435              	.L815:
 4436 008c 154B     		ldr	r3, .L826+8
 4437 008e E26A     		ldr	r2, [r4, #44]
 4438 0090 1B68     		ldr	r3, [r3]
 4439 0092 DB6A     		ldr	r3, [r3, #44]
 4440 0094 9A42     		cmp	r2, r3
 4441 0096 E2D9     		bls	.L823
 4442 0098 069B     		ldr	r3, [sp, #24]
 4443 009a 002B     		cmp	r3, #0
 4444 009c 18D0     		beq	.L817
 4445 009e 1A00     		movs	r2, r3
 4446 00a0 0123     		movs	r3, #1
 4447 00a2 1360     		str	r3, [r2]
 4448 00a4 DBE7     		b	.L823
 4449              	.L818:
 4450 00a6 0024     		movs	r4, #0
 4451 00a8 DAE7     		b	.L809
 4452              	.L825:
 4453 00aa 261D     		adds	r6, r4, #4
 4454 00ac 3000     		movs	r0, r6
 4455 00ae FFF7FEFF 		bl	uxListRemove
 4456 00b2 0D4A     		ldr	r2, .L826+12
 4457 00b4 E36A     		ldr	r3, [r4, #44]
 4458 00b6 1168     		ldr	r1, [r2]
 4459 00b8 8B42     		cmp	r3, r1
 4460 00ba 00D9     		bls	.L814
 4461 00bc 1360     		str	r3, [r2]
 4462              	.L814:
 4463 00be 9800     		lsls	r0, r3, #2
 4464 00c0 C018     		adds	r0, r0, r3
 4465 00c2 0A4B     		ldr	r3, .L826+16
 4466 00c4 8000     		lsls	r0, r0, #2
 4467 00c6 3100     		movs	r1, r6
 4468 00c8 C018     		adds	r0, r0, r3
 4469 00ca FFF7FEFF 		bl	vListInsertEnd
 4470 00ce DDE7     		b	.L815
 4471              	.L817:
 4472 00d0 0122     		movs	r2, #1
 4473 00d2 074B     		ldr	r3, .L826+20
 4474 00d4 0124     		movs	r4, #1
 4475 00d6 1A60     		str	r2, [r3]
 4476 00d8 C2E7     		b	.L809
 4477              	.L827:
 4478 00da C046     		.align	2
 4479              	.L826:
 4480 00dc 00000000 		.word	.LANCHOR14
 4481 00e0 00000000 		.word	.LANCHOR4
 4482 00e4 00000000 		.word	.LANCHOR1
 4483 00e8 00000000 		.word	.LANCHOR11
 4484 00ec 00000000 		.word	pxReadyTasksLists
 4485 00f0 00000000 		.word	.LANCHOR15
 4487              		.section	.text.vTaskNotifyGiveFromISR,"ax",%progbits
 4488              		.align	1
 4489              		.p2align 2,,3
 4490              		.global	vTaskNotifyGiveFromISR
 4491              		.syntax unified
ARM GAS  /tmp/ccSQ6G3A.s 			page 78


 4492              		.code	16
 4493              		.thumb_func
 4494              		.fpu softvfp
 4496              	vTaskNotifyGiveFromISR:
 4497              		@ args = 0, pretend = 0, frame = 0
 4498              		@ frame_needed = 0, uses_anonymous_args = 0
 4499 0000 F8B5     		push	{r3, r4, r5, r6, r7, lr}
 4500 0002 0400     		movs	r4, r0
 4501 0004 0D00     		movs	r5, r1
 4502 0006 0028     		cmp	r0, #0
 4503 0008 34D0     		beq	.L840
 4504 000a FFF7FEFF 		bl	ulSetInterruptMaskFromISR
 4505 000e 5823     		movs	r3, #88
 4506 0010 0221     		movs	r1, #2
 4507 0012 E25C     		ldrb	r2, [r4, r3]
 4508 0014 E154     		strb	r1, [r4, r3]
 4509 0016 636D     		ldr	r3, [r4, #84]
 4510 0018 0600     		movs	r6, r0
 4511 001a 0133     		adds	r3, r3, #1
 4512 001c 6365     		str	r3, [r4, #84]
 4513 001e 012A     		cmp	r2, #1
 4514 0020 24D1     		bne	.L832
 4515 0022 A36A     		ldr	r3, [r4, #40]
 4516 0024 002B     		cmp	r3, #0
 4517 0026 01D0     		beq	.L833
 4518              		.syntax divided
 4519              	@ 4831 "Middlewares/Third_Party/FreeRTOS/Source/tasks.c" 1
 4520 0028 72B6     		 cpsid i 
 4521              	@ 0 "" 2
 4522              		.thumb
 4523              		.syntax unified
 4524              	.L834:
 4525 002a FEE7     		b	.L834
 4526              	.L833:
 4527 002c 174B     		ldr	r3, .L841
 4528 002e 1B68     		ldr	r3, [r3]
 4529 0030 002B     		cmp	r3, #0
 4530 0032 21D1     		bne	.L835
 4531 0034 271D     		adds	r7, r4, #4
 4532 0036 3800     		movs	r0, r7
 4533 0038 FFF7FEFF 		bl	uxListRemove
 4534 003c 144A     		ldr	r2, .L841+4
 4535 003e E36A     		ldr	r3, [r4, #44]
 4536 0040 1168     		ldr	r1, [r2]
 4537 0042 8B42     		cmp	r3, r1
 4538 0044 00D9     		bls	.L836
 4539 0046 1360     		str	r3, [r2]
 4540              	.L836:
 4541 0048 9800     		lsls	r0, r3, #2
 4542 004a C018     		adds	r0, r0, r3
 4543 004c 114B     		ldr	r3, .L841+8
 4544 004e 8000     		lsls	r0, r0, #2
 4545 0050 3900     		movs	r1, r7
 4546 0052 C018     		adds	r0, r0, r3
 4547 0054 FFF7FEFF 		bl	vListInsertEnd
 4548              	.L837:
 4549 0058 0F4B     		ldr	r3, .L841+12
ARM GAS  /tmp/ccSQ6G3A.s 			page 79


 4550 005a E26A     		ldr	r2, [r4, #44]
 4551 005c 1B68     		ldr	r3, [r3]
 4552 005e DB6A     		ldr	r3, [r3, #44]
 4553 0060 9A42     		cmp	r2, r3
 4554 0062 03D9     		bls	.L832
 4555 0064 002D     		cmp	r5, #0
 4556 0066 0DD0     		beq	.L839
 4557 0068 0123     		movs	r3, #1
 4558 006a 2B60     		str	r3, [r5]
 4559              	.L832:
 4560 006c 3000     		movs	r0, r6
 4561 006e FFF7FEFF 		bl	vClearInterruptMaskFromISR
 4562              		@ sp needed
 4563 0072 F8BD     		pop	{r3, r4, r5, r6, r7, pc}
 4564              	.L840:
 4565              		.syntax divided
 4566              	@ 4793 "Middlewares/Third_Party/FreeRTOS/Source/tasks.c" 1
 4567 0074 72B6     		 cpsid i 
 4568              	@ 0 "" 2
 4569              		.thumb
 4570              		.syntax unified
 4571              	.L830:
 4572 0076 FEE7     		b	.L830
 4573              	.L835:
 4574 0078 2100     		movs	r1, r4
 4575 007a 0848     		ldr	r0, .L841+16
 4576 007c 1831     		adds	r1, r1, #24
 4577 007e FFF7FEFF 		bl	vListInsertEnd
 4578 0082 E9E7     		b	.L837
 4579              	.L839:
 4580 0084 0122     		movs	r2, #1
 4581 0086 064B     		ldr	r3, .L841+20
 4582 0088 1A60     		str	r2, [r3]
 4583 008a EFE7     		b	.L832
 4584              	.L842:
 4585              		.align	2
 4586              	.L841:
 4587 008c 00000000 		.word	.LANCHOR14
 4588 0090 00000000 		.word	.LANCHOR11
 4589 0094 00000000 		.word	pxReadyTasksLists
 4590 0098 00000000 		.word	.LANCHOR1
 4591 009c 00000000 		.word	.LANCHOR4
 4592 00a0 00000000 		.word	.LANCHOR15
 4594              		.section	.text.xTaskNotifyStateClear,"ax",%progbits
 4595              		.align	1
 4596              		.p2align 2,,3
 4597              		.global	xTaskNotifyStateClear
 4598              		.syntax unified
 4599              		.code	16
 4600              		.thumb_func
 4601              		.fpu softvfp
 4603              	xTaskNotifyStateClear:
 4604              		@ args = 0, pretend = 0, frame = 0
 4605              		@ frame_needed = 0, uses_anonymous_args = 0
 4606 0000 70B5     		push	{r4, r5, r6, lr}
 4607 0002 041E     		subs	r4, r0, #0
 4608 0004 0CD0     		beq	.L847
ARM GAS  /tmp/ccSQ6G3A.s 			page 80


 4609              	.L844:
 4610 0006 FFF7FEFF 		bl	vPortEnterCritical
 4611 000a 5823     		movs	r3, #88
 4612 000c E25C     		ldrb	r2, [r4, r3]
 4613 000e 0025     		movs	r5, #0
 4614 0010 022A     		cmp	r2, #2
 4615 0012 01D1     		bne	.L845
 4616 0014 E554     		strb	r5, [r4, r3]
 4617 0016 0135     		adds	r5, r5, #1
 4618              	.L845:
 4619 0018 FFF7FEFF 		bl	vPortExitCritical
 4620              		@ sp needed
 4621 001c 2800     		movs	r0, r5
 4622 001e 70BD     		pop	{r4, r5, r6, pc}
 4623              	.L847:
 4624 0020 014B     		ldr	r3, .L848
 4625 0022 1C68     		ldr	r4, [r3]
 4626 0024 EFE7     		b	.L844
 4627              	.L849:
 4628 0026 C046     		.align	2
 4629              	.L848:
 4630 0028 00000000 		.word	.LANCHOR1
 4632              		.global	pxCurrentTCB
 4633              		.section	.bss.pxCurrentTCB,"aw",%nobits
 4634              		.align	2
 4635              		.set	.LANCHOR1,. + 0
 4638              	pxCurrentTCB:
 4639 0000 00000000 		.space	4
 4640              		.section	.bss.pxDelayedTaskList,"aw",%nobits
 4641              		.align	2
 4642              		.set	.LANCHOR7,. + 0
 4645              	pxDelayedTaskList:
 4646 0000 00000000 		.space	4
 4647              		.section	.bss.pxOverflowDelayedTaskList,"aw",%nobits
 4648              		.align	2
 4649              		.set	.LANCHOR8,. + 0
 4652              	pxOverflowDelayedTaskList:
 4653 0000 00000000 		.space	4
 4654              		.section	.bss.pxReadyTasksLists,"aw",%nobits
 4655              		.align	2
 4658              	pxReadyTasksLists:
 4659 0000 00000000 		.space	1120
 4659      00000000 
 4659      00000000 
 4659      00000000 
 4659      00000000 
 4660              		.section	.bss.uxCurrentNumberOfTasks,"aw",%nobits
 4661              		.align	2
 4662              		.set	.LANCHOR0,. + 0
 4665              	uxCurrentNumberOfTasks:
 4666 0000 00000000 		.space	4
 4667              		.section	.bss.uxDeletedTasksWaitingCleanUp,"aw",%nobits
 4668              		.align	2
 4669              		.set	.LANCHOR12,. + 0
 4672              	uxDeletedTasksWaitingCleanUp:
 4673 0000 00000000 		.space	4
 4674              		.section	.bss.uxPendedTicks,"aw",%nobits
ARM GAS  /tmp/ccSQ6G3A.s 			page 81


 4675              		.align	2
 4676              		.set	.LANCHOR18,. + 0
 4679              	uxPendedTicks:
 4680 0000 00000000 		.space	4
 4681              		.section	.bss.uxSchedulerSuspended,"aw",%nobits
 4682              		.align	2
 4683              		.set	.LANCHOR14,. + 0
 4686              	uxSchedulerSuspended:
 4687 0000 00000000 		.space	4
 4688              		.section	.bss.uxTaskNumber,"aw",%nobits
 4689              		.align	2
 4690              		.set	.LANCHOR10,. + 0
 4693              	uxTaskNumber:
 4694 0000 00000000 		.space	4
 4695              		.section	.bss.uxTopReadyPriority,"aw",%nobits
 4696              		.align	2
 4697              		.set	.LANCHOR11,. + 0
 4700              	uxTopReadyPriority:
 4701 0000 00000000 		.space	4
 4702              		.section	.bss.xDelayedTaskList1,"aw",%nobits
 4703              		.align	2
 4704              		.set	.LANCHOR2,. + 0
 4707              	xDelayedTaskList1:
 4708 0000 00000000 		.space	20
 4708      00000000 
 4708      00000000 
 4708      00000000 
 4708      00000000 
 4709              		.section	.bss.xDelayedTaskList2,"aw",%nobits
 4710              		.align	2
 4711              		.set	.LANCHOR3,. + 0
 4714              	xDelayedTaskList2:
 4715 0000 00000000 		.space	20
 4715      00000000 
 4715      00000000 
 4715      00000000 
 4715      00000000 
 4716              		.section	.bss.xNextTaskUnblockTime,"aw",%nobits
 4717              		.align	2
 4718              		.set	.LANCHOR13,. + 0
 4721              	xNextTaskUnblockTime:
 4722 0000 00000000 		.space	4
 4723              		.section	.bss.xNumOfOverflows,"aw",%nobits
 4724              		.align	2
 4725              		.set	.LANCHOR17,. + 0
 4728              	xNumOfOverflows:
 4729 0000 00000000 		.space	4
 4730              		.section	.bss.xPendingReadyList,"aw",%nobits
 4731              		.align	2
 4732              		.set	.LANCHOR4,. + 0
 4735              	xPendingReadyList:
 4736 0000 00000000 		.space	20
 4736      00000000 
 4736      00000000 
 4736      00000000 
 4736      00000000 
 4737              		.section	.bss.xSchedulerRunning,"aw",%nobits
ARM GAS  /tmp/ccSQ6G3A.s 			page 82


 4738              		.align	2
 4739              		.set	.LANCHOR9,. + 0
 4742              	xSchedulerRunning:
 4743 0000 00000000 		.space	4
 4744              		.section	.bss.xSuspendedTaskList,"aw",%nobits
 4745              		.align	2
 4746              		.set	.LANCHOR6,. + 0
 4749              	xSuspendedTaskList:
 4750 0000 00000000 		.space	20
 4750      00000000 
 4750      00000000 
 4750      00000000 
 4750      00000000 
 4751              		.section	.bss.xTasksWaitingTermination,"aw",%nobits
 4752              		.align	2
 4753              		.set	.LANCHOR5,. + 0
 4756              	xTasksWaitingTermination:
 4757 0000 00000000 		.space	20
 4757      00000000 
 4757      00000000 
 4757      00000000 
 4757      00000000 
 4758              		.section	.bss.xTickCount,"aw",%nobits
 4759              		.align	2
 4760              		.set	.LANCHOR16,. + 0
 4763              	xTickCount:
 4764 0000 00000000 		.space	4
 4765              		.section	.bss.xYieldPending,"aw",%nobits
 4766              		.align	2
 4767              		.set	.LANCHOR15,. + 0
 4770              	xYieldPending:
 4771 0000 00000000 		.space	4
 4772              		.ident	"GCC: (15:9-2019-q4-0ubuntu1) 9.2.1 20191025 (release) [ARM/arm-9-branch revision 277599]"
ARM GAS  /tmp/ccSQ6G3A.s 			page 83

