ARM GAS  /tmp/cccpfSQT.s 			page 1


   1              		.cpu cortex-m0
   2              		.eabi_attribute 20, 1
   3              		.eabi_attribute 21, 1
   4              		.eabi_attribute 23, 3
   5              		.eabi_attribute 24, 1
   6              		.eabi_attribute 25, 1
   7              		.eabi_attribute 26, 1
   8              		.eabi_attribute 30, 2
   9              		.eabi_attribute 34, 0
  10              		.eabi_attribute 18, 4
  11              		.file	"timers.c"
  12              		.text
  13              		.section	.text.prvSwitchTimerLists,"ax",%progbits
  14              		.align	1
  15              		.p2align 2,,3
  16              		.arch armv6s-m
  17              		.syntax unified
  18              		.code	16
  19              		.thumb_func
  20              		.fpu softvfp
  22              	prvSwitchTimerLists:
  23              		@ args = 0, pretend = 0, frame = 16
  24              		@ frame_needed = 0, uses_anonymous_args = 0
  25 0000 F0B5     		push	{r4, r5, r6, r7, lr}
  26 0002 CE46     		mov	lr, r9
  27 0004 4746     		mov	r7, r8
  28 0006 214B     		ldr	r3, .L13
  29 0008 80B5     		push	{r7, lr}
  30 000a 9946     		mov	r9, r3
  31 000c 0023     		movs	r3, #0
  32 000e 204E     		ldr	r6, .L13+4
  33 0010 9846     		mov	r8, r3
  34 0012 85B0     		sub	sp, sp, #20
  35 0014 0CE0     		b	.L3
  36              	.L9:
  37 0016 DB68     		ldr	r3, [r3, #12]
  38 0018 DC68     		ldr	r4, [r3, #12]
  39 001a 1F68     		ldr	r7, [r3]
  40 001c 251D     		adds	r5, r4, #4
  41 001e 2800     		movs	r0, r5
  42 0020 FFF7FEFF 		bl	uxListRemove
  43 0024 636A     		ldr	r3, [r4, #36]
  44 0026 2000     		movs	r0, r4
  45 0028 9847     		blx	r3
  46 002a E369     		ldr	r3, [r4, #28]
  47 002c 012B     		cmp	r3, #1
  48 002e 0CD0     		beq	.L12
  49              	.L3:
  50 0030 3368     		ldr	r3, [r6]
  51 0032 1A68     		ldr	r2, [r3]
  52 0034 002A     		cmp	r2, #0
  53 0036 EED1     		bne	.L9
  54 0038 164A     		ldr	r2, .L13+8
  55 003a 1168     		ldr	r1, [r2]
  56 003c 1360     		str	r3, [r2]
  57 003e 3160     		str	r1, [r6]
  58 0040 05B0     		add	sp, sp, #20
ARM GAS  /tmp/cccpfSQT.s 			page 2


  59              		@ sp needed
  60 0042 0CBC     		pop	{r2, r3}
  61 0044 9046     		mov	r8, r2
  62 0046 9946     		mov	r9, r3
  63 0048 F0BD     		pop	{r4, r5, r6, r7, pc}
  64              	.L12:
  65 004a A369     		ldr	r3, [r4, #24]
  66 004c FB18     		adds	r3, r7, r3
  67 004e 9F42     		cmp	r7, r3
  68 0050 06D2     		bcs	.L4
  69 0052 2900     		movs	r1, r5
  70 0054 3068     		ldr	r0, [r6]
  71 0056 6360     		str	r3, [r4, #4]
  72 0058 2461     		str	r4, [r4, #16]
  73 005a FFF7FEFF 		bl	vListInsert
  74 005e E7E7     		b	.L3
  75              	.L4:
  76 0060 4B46     		mov	r3, r9
  77 0062 1B68     		ldr	r3, [r3]
  78 0064 002B     		cmp	r3, #0
  79 0066 0ED0     		beq	.L7
  80 0068 4346     		mov	r3, r8
  81 006a 0197     		str	r7, [sp, #4]
  82 006c 0093     		str	r3, [sp]
  83 006e 0294     		str	r4, [sp, #8]
  84 0070 FFF7FEFF 		bl	xTaskGetSchedulerState
  85 0074 4846     		mov	r0, r9
  86 0076 0023     		movs	r3, #0
  87 0078 0022     		movs	r2, #0
  88 007a 6946     		mov	r1, sp
  89 007c 0068     		ldr	r0, [r0]
  90 007e FFF7FEFF 		bl	xQueueGenericSend
  91 0082 0028     		cmp	r0, #0
  92 0084 D4D1     		bne	.L3
  93              	.L7:
  94              		.syntax divided
  95              	@ 878 "Middlewares/Third_Party/FreeRTOS/Source/timers.c" 1
  96 0086 72B6     		 cpsid i 
  97              	@ 0 "" 2
  98              		.thumb
  99              		.syntax unified
 100              	.L8:
 101 0088 FEE7     		b	.L8
 102              	.L14:
 103 008a C046     		.align	2
 104              	.L13:
 105 008c 00000000 		.word	.LANCHOR1
 106 0090 00000000 		.word	.LANCHOR0
 107 0094 00000000 		.word	.LANCHOR2
 109              		.section	.text.prvTimerTask,"ax",%progbits
 110              		.align	1
 111              		.p2align 2,,3
 112              		.syntax unified
 113              		.code	16
 114              		.thumb_func
 115              		.fpu softvfp
 117              	prvTimerTask:
ARM GAS  /tmp/cccpfSQT.s 			page 3


 118              		@ args = 0, pretend = 0, frame = 48
 119              		@ frame_needed = 0, uses_anonymous_args = 0
 120 0000 F0B5     		push	{r4, r5, r6, r7, lr}
 121 0002 4E46     		mov	r6, r9
 122 0004 5746     		mov	r7, r10
 123 0006 DE46     		mov	lr, fp
 124 0008 4546     		mov	r5, r8
 125 000a 884B     		ldr	r3, .L70
 126 000c E0B5     		push	{r5, r6, r7, lr}
 127 000e 9946     		mov	r9, r3
 128 0010 874B     		ldr	r3, .L70+4
 129 0012 884E     		ldr	r6, .L70+8
 130 0014 9A46     		mov	r10, r3
 131 0016 884C     		ldr	r4, .L70+12
 132 0018 8DB0     		sub	sp, sp, #52
 133              	.L46:
 134 001a 4B46     		mov	r3, r9
 135 001c 1B68     		ldr	r3, [r3]
 136 001e 1F68     		ldr	r7, [r3]
 137 0020 002F     		cmp	r7, #0
 138 0022 00D1     		bne	.LCB135
 139 0024 88E0     		b	.L16	@long jump
 140              	.LCB135:
 141 0026 DB68     		ldr	r3, [r3, #12]
 142 0028 1F68     		ldr	r7, [r3]
 143 002a FFF7FEFF 		bl	vTaskSuspendAll
 144 002e FFF7FEFF 		bl	xTaskGetTickCount
 145 0032 3368     		ldr	r3, [r6]
 146 0034 0500     		movs	r5, r0
 147 0036 9842     		cmp	r0, r3
 148 0038 00D2     		bcs	.LCB144
 149 003a 97E0     		b	.L52	@long jump
 150              	.LCB144:
 151 003c 3060     		str	r0, [r6]
 152 003e 8742     		cmp	r7, r0
 153 0040 00D8     		bhi	.LCB147
 154 0042 ABE0     		b	.L50	@long jump
 155              	.LCB147:
 156 0044 0022     		movs	r2, #0
 157 0046 2068     		ldr	r0, [r4]
 158 0048 791B     		subs	r1, r7, r5
 159 004a FFF7FEFF 		bl	vQueueWaitForMessageRestricted
 160 004e FFF7FEFF 		bl	xTaskResumeAll
 161 0052 0028     		cmp	r0, #0
 162 0054 00D1     		bne	.LCB156
 163 0056 86E0     		b	.L62	@long jump
 164              	.LCB156:
 165              	.L28:
 166 0058 0022     		movs	r2, #0
 167 005a 2068     		ldr	r0, [r4]
 168 005c 04A9     		add	r1, sp, #16
 169 005e FFF7FEFF 		bl	xQueueReceive
 170 0062 0028     		cmp	r0, #0
 171 0064 D9D0     		beq	.L46
 172 0066 049B     		ldr	r3, [sp, #16]
 173 0068 0193     		str	r3, [sp, #4]
 174 006a 002B     		cmp	r3, #0
ARM GAS  /tmp/cccpfSQT.s 			page 4


 175 006c 56DB     		blt	.L63
 176              	.L27:
 177 006e 069D     		ldr	r5, [sp, #24]
 178 0070 6B69     		ldr	r3, [r5, #20]
 179 0072 002B     		cmp	r3, #0
 180 0074 02D0     		beq	.L29
 181 0076 281D     		adds	r0, r5, #4
 182 0078 FFF7FEFF 		bl	uxListRemove
 183              	.L29:
 184 007c FFF7FEFF 		bl	xTaskGetTickCount
 185 0080 3368     		ldr	r3, [r6]
 186 0082 0700     		movs	r7, r0
 187 0084 9842     		cmp	r0, r3
 188 0086 77D3     		bcc	.L64
 189              	.L30:
 190 0088 049B     		ldr	r3, [sp, #16]
 191 008a 3760     		str	r7, [r6]
 192 008c 092B     		cmp	r3, #9
 193 008e E3D8     		bhi	.L28
 194 0090 6A4A     		ldr	r2, .L70+16
 195 0092 9B00     		lsls	r3, r3, #2
 196 0094 D358     		ldr	r3, [r2, r3]
 197 0096 9F46     		mov	pc, r3
 198              		.section	.rodata.prvTimerTask,"a",%progbits
 199              		.align	2
 200              	.L33:
 201 0000 98000000 		.word	.L34
 202 0004 98000000 		.word	.L34
 203 0008 98000000 		.word	.L34
 204 000c 58000000 		.word	.L28
 205 0010 EC000000 		.word	.L32
 206 0014 0C010000 		.word	.L35
 207 0018 98000000 		.word	.L34
 208 001c 98000000 		.word	.L34
 209 0020 58000000 		.word	.L28
 210 0024 EC000000 		.word	.L32
 211              		.section	.text.prvTimerTask
 212              	.L34:
 213 0098 059B     		ldr	r3, [sp, #20]
 214 009a A969     		ldr	r1, [r5, #24]
 215 009c 2D61     		str	r5, [r5, #16]
 216 009e 5A18     		adds	r2, r3, r1
 217 00a0 6A60     		str	r2, [r5, #4]
 218 00a2 BA42     		cmp	r2, r7
 219 00a4 6BD8     		bhi	.L36
 220 00a6 FF1A     		subs	r7, r7, r3
 221 00a8 B942     		cmp	r1, r7
 222 00aa 00D9     		bls	.LCB211
 223 00ac 8CE0     		b	.L65	@long jump
 224              	.LCB211:
 225              	.L37:
 226 00ae 6B6A     		ldr	r3, [r5, #36]
 227 00b0 2800     		movs	r0, r5
 228 00b2 9847     		blx	r3
 229 00b4 EB69     		ldr	r3, [r5, #28]
 230 00b6 012B     		cmp	r3, #1
 231 00b8 CED1     		bne	.L28
ARM GAS  /tmp/cccpfSQT.s 			page 5


 232 00ba 2368     		ldr	r3, [r4]
 233 00bc 002B     		cmp	r3, #0
 234 00be 13D0     		beq	.L39
 235 00c0 0022     		movs	r2, #0
 236 00c2 059B     		ldr	r3, [sp, #20]
 237 00c4 0193     		str	r3, [sp, #4]
 238 00c6 AB69     		ldr	r3, [r5, #24]
 239 00c8 0892     		str	r2, [sp, #32]
 240 00ca 019A     		ldr	r2, [sp, #4]
 241 00cc 0A95     		str	r5, [sp, #40]
 242 00ce 9446     		mov	ip, r2
 243 00d0 6344     		add	r3, r3, ip
 244 00d2 0993     		str	r3, [sp, #36]
 245 00d4 FFF7FEFF 		bl	xTaskGetSchedulerState
 246 00d8 0023     		movs	r3, #0
 247 00da 2068     		ldr	r0, [r4]
 248 00dc 1A00     		movs	r2, r3
 249 00de 08A9     		add	r1, sp, #32
 250 00e0 FFF7FEFF 		bl	xQueueGenericSend
 251 00e4 0028     		cmp	r0, #0
 252 00e6 B7D1     		bne	.L28
 253              	.L39:
 254              		.syntax divided
 255              	@ 765 "Middlewares/Third_Party/FreeRTOS/Source/timers.c" 1
 256 00e8 72B6     		 cpsid i 
 257              	@ 0 "" 2
 258              		.thumb
 259              		.syntax unified
 260              	.L40:
 261 00ea FEE7     		b	.L40
 262              	.L32:
 263 00ec 059B     		ldr	r3, [sp, #20]
 264 00ee AB61     		str	r3, [r5, #24]
 265 00f0 002B     		cmp	r3, #0
 266 00f2 00D1     		bne	.LCB255
 267 00f4 92E0     		b	.L66	@long jump
 268              	.LCB255:
 269 00f6 DB19     		adds	r3, r3, r7
 270 00f8 6B60     		str	r3, [r5, #4]
 271 00fa 2D61     		str	r5, [r5, #16]
 272 00fc 291D     		adds	r1, r5, #4
 273 00fe BB42     		cmp	r3, r7
 274 0100 47D8     		bhi	.L43
 275 0102 5346     		mov	r3, r10
 276 0104 1868     		ldr	r0, [r3]
 277 0106 FFF7FEFF 		bl	vListInsert
 278 010a A5E7     		b	.L28
 279              	.L35:
 280 010c 2C23     		movs	r3, #44
 281 010e EB5C     		ldrb	r3, [r5, r3]
 282 0110 002B     		cmp	r3, #0
 283 0112 A1D1     		bne	.L28
 284 0114 2800     		movs	r0, r5
 285 0116 FFF7FEFF 		bl	vPortFree
 286 011a 9DE7     		b	.L28
 287              	.L63:
 288 011c 079B     		ldr	r3, [sp, #28]
ARM GAS  /tmp/cccpfSQT.s 			page 6


 289 011e 0193     		str	r3, [sp, #4]
 290 0120 069B     		ldr	r3, [sp, #24]
 291 0122 0199     		ldr	r1, [sp, #4]
 292 0124 0293     		str	r3, [sp, #8]
 293 0126 059B     		ldr	r3, [sp, #20]
 294 0128 0298     		ldr	r0, [sp, #8]
 295 012a 0393     		str	r3, [sp, #12]
 296 012c 9847     		blx	r3
 297 012e 049B     		ldr	r3, [sp, #16]
 298 0130 0193     		str	r3, [sp, #4]
 299 0132 002B     		cmp	r3, #0
 300 0134 90DB     		blt	.L28
 301 0136 9AE7     		b	.L27
 302              	.L16:
 303 0138 FFF7FEFF 		bl	vTaskSuspendAll
 304 013c FFF7FEFF 		bl	xTaskGetTickCount
 305 0140 3368     		ldr	r3, [r6]
 306 0142 0500     		movs	r5, r0
 307 0144 8342     		cmp	r3, r0
 308 0146 11D8     		bhi	.L52
 309 0148 5346     		mov	r3, r10
 310 014a 1B68     		ldr	r3, [r3]
 311 014c 2068     		ldr	r0, [r4]
 312 014e 1A68     		ldr	r2, [r3]
 313 0150 791B     		subs	r1, r7, r5
 314 0152 5342     		rsbs	r3, r2, #0
 315 0154 5A41     		adcs	r2, r2, r3
 316 0156 3560     		str	r5, [r6]
 317 0158 FFF7FEFF 		bl	vQueueWaitForMessageRestricted
 318 015c FFF7FEFF 		bl	xTaskResumeAll
 319 0160 0028     		cmp	r0, #0
 320 0162 00D0     		beq	.LCB315
 321 0164 78E7     		b	.L28	@long jump
 322              	.LCB315:
 323              	.L62:
 324 0166 FFF7FEFF 		bl	vPortYield
 325 016a 75E7     		b	.L28
 326              	.L52:
 327 016c FFF7FEFF 		bl	prvSwitchTimerLists
 328 0170 3560     		str	r5, [r6]
 329 0172 FFF7FEFF 		bl	xTaskResumeAll
 330 0176 6FE7     		b	.L28
 331              	.L64:
 332 0178 FFF7FEFF 		bl	prvSwitchTimerLists
 333 017c 84E7     		b	.L30
 334              	.L36:
 335 017e BB42     		cmp	r3, r7
 336 0180 01D9     		bls	.L38
 337 0182 9342     		cmp	r3, r2
 338 0184 93D9     		bls	.L37
 339              	.L38:
 340 0186 4B46     		mov	r3, r9
 341 0188 291D     		adds	r1, r5, #4
 342 018a 1868     		ldr	r0, [r3]
 343 018c FFF7FEFF 		bl	vListInsert
 344 0190 62E7     		b	.L28
 345              	.L43:
ARM GAS  /tmp/cccpfSQT.s 			page 7


 346 0192 4B46     		mov	r3, r9
 347 0194 1868     		ldr	r0, [r3]
 348 0196 FFF7FEFF 		bl	vListInsert
 349 019a 5DE7     		b	.L28
 350              	.L50:
 351 019c FFF7FEFF 		bl	xTaskResumeAll
 352 01a0 4B46     		mov	r3, r9
 353 01a2 1B68     		ldr	r3, [r3]
 354 01a4 DB68     		ldr	r3, [r3, #12]
 355 01a6 DB68     		ldr	r3, [r3, #12]
 356 01a8 9846     		mov	r8, r3
 357 01aa 0423     		movs	r3, #4
 358 01ac 4344     		add	r3, r3, r8
 359 01ae 1800     		movs	r0, r3
 360 01b0 9B46     		mov	fp, r3
 361 01b2 FFF7FEFF 		bl	uxListRemove
 362 01b6 4346     		mov	r3, r8
 363 01b8 DB69     		ldr	r3, [r3, #28]
 364 01ba 012B     		cmp	r3, #1
 365 01bc 0AD0     		beq	.L67
 366              	.L22:
 367 01be 4346     		mov	r3, r8
 368 01c0 4046     		mov	r0, r8
 369 01c2 5B6A     		ldr	r3, [r3, #36]
 370 01c4 9847     		blx	r3
 371 01c6 47E7     		b	.L28
 372              	.L65:
 373 01c8 5346     		mov	r3, r10
 374 01ca 291D     		adds	r1, r5, #4
 375 01cc 1868     		ldr	r0, [r3]
 376 01ce FFF7FEFF 		bl	vListInsert
 377 01d2 41E7     		b	.L28
 378              	.L67:
 379 01d4 4346     		mov	r3, r8
 380 01d6 4146     		mov	r1, r8
 381 01d8 9B69     		ldr	r3, [r3, #24]
 382 01da 0961     		str	r1, [r1, #16]
 383 01dc FA18     		adds	r2, r7, r3
 384 01de 4A60     		str	r2, [r1, #4]
 385 01e0 AA42     		cmp	r2, r5
 386 01e2 05D9     		bls	.L68
 387 01e4 4B46     		mov	r3, r9
 388 01e6 5946     		mov	r1, fp
 389 01e8 1868     		ldr	r0, [r3]
 390 01ea FFF7FEFF 		bl	vListInsert
 391 01ee E6E7     		b	.L22
 392              	.L68:
 393 01f0 ED1B     		subs	r5, r5, r7
 394 01f2 AB42     		cmp	r3, r5
 395 01f4 14D8     		bhi	.L69
 396 01f6 2368     		ldr	r3, [r4]
 397 01f8 002B     		cmp	r3, #0
 398 01fa 0DD0     		beq	.L24
 399 01fc 0023     		movs	r3, #0
 400 01fe 0A91     		str	r1, [sp, #40]
 401 0200 0893     		str	r3, [sp, #32]
 402 0202 0997     		str	r7, [sp, #36]
ARM GAS  /tmp/cccpfSQT.s 			page 8


 403 0204 FFF7FEFF 		bl	xTaskGetSchedulerState
 404 0208 0023     		movs	r3, #0
 405 020a 2068     		ldr	r0, [r4]
 406 020c 1A00     		movs	r2, r3
 407 020e 08A9     		add	r1, sp, #32
 408 0210 FFF7FEFF 		bl	xQueueGenericSend
 409 0214 0028     		cmp	r0, #0
 410 0216 D2D1     		bne	.L22
 411              	.L24:
 412              		.syntax divided
 413              	@ 484 "Middlewares/Third_Party/FreeRTOS/Source/timers.c" 1
 414 0218 72B6     		 cpsid i 
 415              	@ 0 "" 2
 416              		.thumb
 417              		.syntax unified
 418              	.L25:
 419 021a FEE7     		b	.L25
 420              	.L66:
 421              		.syntax divided
 422              	@ 788 "Middlewares/Third_Party/FreeRTOS/Source/timers.c" 1
 423 021c 72B6     		 cpsid i 
 424              	@ 0 "" 2
 425              		.thumb
 426              		.syntax unified
 427              	.L42:
 428 021e FEE7     		b	.L42
 429              	.L69:
 430 0220 5346     		mov	r3, r10
 431 0222 5946     		mov	r1, fp
 432 0224 1868     		ldr	r0, [r3]
 433 0226 FFF7FEFF 		bl	vListInsert
 434 022a C8E7     		b	.L22
 435              	.L71:
 436              		.align	2
 437              	.L70:
 438 022c 00000000 		.word	.LANCHOR0
 439 0230 00000000 		.word	.LANCHOR2
 440 0234 00000000 		.word	.LANCHOR3
 441 0238 00000000 		.word	.LANCHOR1
 442 023c 00000000 		.word	.L33
 444              		.section	.rodata.xTimerCreateTimerTask.str1.4,"aMS",%progbits,1
 445              		.align	2
 446              	.LC15:
 447 0000 546D7251 		.ascii	"TmrQ\000"
 447      00
 448 0005 000000   		.align	2
 449              	.LC17:
 450 0008 546D7220 		.ascii	"Tmr Svc\000"
 450      53766300 
 451              		.section	.text.xTimerCreateTimerTask,"ax",%progbits
 452              		.align	1
 453              		.p2align 2,,3
 454              		.global	xTimerCreateTimerTask
 455              		.syntax unified
 456              		.code	16
 457              		.thumb_func
 458              		.fpu softvfp
ARM GAS  /tmp/cccpfSQT.s 			page 9


 460              	xTimerCreateTimerTask:
 461              		@ args = 0, pretend = 0, frame = 16
 462              		@ frame_needed = 0, uses_anonymous_args = 0
 463 0000 F0B5     		push	{r4, r5, r6, r7, lr}
 464 0002 89B0     		sub	sp, sp, #36
 465 0004 FFF7FEFF 		bl	vPortEnterCritical
 466 0008 1F4C     		ldr	r4, .L90
 467 000a 2568     		ldr	r5, [r4]
 468 000c 002D     		cmp	r5, #0
 469 000e 21D0     		beq	.L89
 470              	.L74:
 471 0010 FFF7FEFF 		bl	vPortExitCritical
 472 0014 2368     		ldr	r3, [r4]
 473 0016 002B     		cmp	r3, #0
 474 0018 1AD0     		beq	.L76
 475 001a 0023     		movs	r3, #0
 476 001c 07AA     		add	r2, sp, #28
 477 001e 06A9     		add	r1, sp, #24
 478 0020 05A8     		add	r0, sp, #20
 479 0022 0593     		str	r3, [sp, #20]
 480 0024 0693     		str	r3, [sp, #24]
 481 0026 FFF7FEFF 		bl	vApplicationGetTimerTaskMemory
 482 002a 059B     		ldr	r3, [sp, #20]
 483 002c 079A     		ldr	r2, [sp, #28]
 484 002e 0293     		str	r3, [sp, #8]
 485 0030 069B     		ldr	r3, [sp, #24]
 486 0032 1649     		ldr	r1, .L90+4
 487 0034 0193     		str	r3, [sp, #4]
 488 0036 0223     		movs	r3, #2
 489 0038 1548     		ldr	r0, .L90+8
 490 003a 0093     		str	r3, [sp]
 491 003c 0023     		movs	r3, #0
 492 003e FFF7FEFF 		bl	xTaskCreateStatic
 493 0042 144B     		ldr	r3, .L90+12
 494 0044 1860     		str	r0, [r3]
 495 0046 0028     		cmp	r0, #0
 496 0048 02D0     		beq	.L76
 497 004a 0120     		movs	r0, #1
 498 004c 09B0     		add	sp, sp, #36
 499              		@ sp needed
 500 004e F0BD     		pop	{r4, r5, r6, r7, pc}
 501              	.L76:
 502              		.syntax divided
 503              	@ 271 "Middlewares/Third_Party/FreeRTOS/Source/timers.c" 1
 504 0050 72B6     		 cpsid i 
 505              	@ 0 "" 2
 506              		.thumb
 507              		.syntax unified
 508              	.L78:
 509 0052 FEE7     		b	.L78
 510              	.L89:
 511 0054 104F     		ldr	r7, .L90+16
 512 0056 3800     		movs	r0, r7
 513 0058 FFF7FEFF 		bl	vListInitialise
 514 005c 0F4E     		ldr	r6, .L90+20
 515 005e 3000     		movs	r0, r6
 516 0060 FFF7FEFF 		bl	vListInitialise
ARM GAS  /tmp/cccpfSQT.s 			page 10


 517 0064 0E4B     		ldr	r3, .L90+24
 518 0066 1021     		movs	r1, #16
 519 0068 1F60     		str	r7, [r3]
 520 006a 0E4B     		ldr	r3, .L90+28
 521 006c 0A20     		movs	r0, #10
 522 006e 1E60     		str	r6, [r3]
 523 0070 0D4A     		ldr	r2, .L90+32
 524 0072 0E4B     		ldr	r3, .L90+36
 525 0074 0095     		str	r5, [sp]
 526 0076 FFF7FEFF 		bl	xQueueGenericCreateStatic
 527 007a 2060     		str	r0, [r4]
 528 007c 0028     		cmp	r0, #0
 529 007e C7D0     		beq	.L74
 530 0080 0B49     		ldr	r1, .L90+40
 531 0082 FFF7FEFF 		bl	vQueueAddToRegistry
 532 0086 C3E7     		b	.L74
 533              	.L91:
 534              		.align	2
 535              	.L90:
 536 0088 00000000 		.word	.LANCHOR1
 537 008c 08000000 		.word	.LC17
 538 0090 00000000 		.word	prvTimerTask
 539 0094 00000000 		.word	.LANCHOR7
 540 0098 00000000 		.word	.LANCHOR4
 541 009c 00000000 		.word	.LANCHOR5
 542 00a0 00000000 		.word	.LANCHOR0
 543 00a4 00000000 		.word	.LANCHOR2
 544 00a8 00000000 		.word	ucStaticTimerQueueStorage.5524
 545 00ac 00000000 		.word	.LANCHOR6
 546 00b0 00000000 		.word	.LC15
 548              		.section	.text.xTimerCreate,"ax",%progbits
 549              		.align	1
 550              		.p2align 2,,3
 551              		.global	xTimerCreate
 552              		.syntax unified
 553              		.code	16
 554              		.thumb_func
 555              		.fpu softvfp
 557              	xTimerCreate:
 558              		@ args = 4, pretend = 0, frame = 8
 559              		@ frame_needed = 0, uses_anonymous_args = 0
 560 0000 F0B5     		push	{r4, r5, r6, r7, lr}
 561 0002 DE46     		mov	lr, fp
 562 0004 5746     		mov	r7, r10
 563 0006 4E46     		mov	r6, r9
 564 0008 4546     		mov	r5, r8
 565 000a E0B5     		push	{r5, r6, r7, lr}
 566 000c 0700     		movs	r7, r0
 567 000e 85B0     		sub	sp, sp, #20
 568 0010 3020     		movs	r0, #48
 569 0012 0D00     		movs	r5, r1
 570 0014 1600     		movs	r6, r2
 571 0016 0393     		str	r3, [sp, #12]
 572 0018 FFF7FEFF 		bl	pvPortMalloc
 573 001c 041E     		subs	r4, r0, #0
 574 001e 18D0     		beq	.L92
 575 0020 002D     		cmp	r5, #0
ARM GAS  /tmp/cccpfSQT.s 			page 11


 576 0022 1ED0     		beq	.L105
 577 0024 FFF7FEFF 		bl	vPortEnterCritical
 578 0028 1F4B     		ldr	r3, .L107
 579 002a 9846     		mov	r8, r3
 580 002c 1B68     		ldr	r3, [r3]
 581 002e 9946     		mov	r9, r3
 582 0030 002B     		cmp	r3, #0
 583 0032 18D0     		beq	.L106
 584              	.L97:
 585 0034 FFF7FEFF 		bl	vPortExitCritical
 586 0038 039B     		ldr	r3, [sp, #12]
 587 003a 2760     		str	r7, [r4]
 588 003c 2362     		str	r3, [r4, #32]
 589 003e 0E9B     		ldr	r3, [sp, #56]
 590 0040 A561     		str	r5, [r4, #24]
 591 0042 6362     		str	r3, [r4, #36]
 592 0044 E661     		str	r6, [r4, #28]
 593 0046 201D     		adds	r0, r4, #4
 594 0048 FFF7FEFF 		bl	vListInitialiseItem
 595 004c 2C23     		movs	r3, #44
 596 004e 0022     		movs	r2, #0
 597 0050 E254     		strb	r2, [r4, r3]
 598              	.L92:
 599 0052 2000     		movs	r0, r4
 600 0054 05B0     		add	sp, sp, #20
 601              		@ sp needed
 602 0056 3CBC     		pop	{r2, r3, r4, r5}
 603 0058 9046     		mov	r8, r2
 604 005a 9946     		mov	r9, r3
 605 005c A246     		mov	r10, r4
 606 005e AB46     		mov	fp, r5
 607 0060 F0BD     		pop	{r4, r5, r6, r7, pc}
 608              	.L105:
 609              		.syntax divided
 610              	@ 360 "Middlewares/Third_Party/FreeRTOS/Source/timers.c" 1
 611 0062 72B6     		 cpsid i 
 612              	@ 0 "" 2
 613              		.thumb
 614              		.syntax unified
 615              	.L95:
 616 0064 FEE7     		b	.L95
 617              	.L106:
 618 0066 114B     		ldr	r3, .L107+4
 619 0068 9B46     		mov	fp, r3
 620 006a 1800     		movs	r0, r3
 621 006c FFF7FEFF 		bl	vListInitialise
 622 0070 0F4B     		ldr	r3, .L107+8
 623 0072 1800     		movs	r0, r3
 624 0074 9A46     		mov	r10, r3
 625 0076 FFF7FEFF 		bl	vListInitialise
 626 007a 5A46     		mov	r2, fp
 627 007c 0D4B     		ldr	r3, .L107+12
 628 007e 1021     		movs	r1, #16
 629 0080 1A60     		str	r2, [r3]
 630 0082 5246     		mov	r2, r10
 631 0084 0C4B     		ldr	r3, .L107+16
 632 0086 0A20     		movs	r0, #10
ARM GAS  /tmp/cccpfSQT.s 			page 12


 633 0088 1A60     		str	r2, [r3]
 634 008a 4B46     		mov	r3, r9
 635 008c 0B4A     		ldr	r2, .L107+20
 636 008e 0093     		str	r3, [sp]
 637 0090 0B4B     		ldr	r3, .L107+24
 638 0092 FFF7FEFF 		bl	xQueueGenericCreateStatic
 639 0096 4346     		mov	r3, r8
 640 0098 1860     		str	r0, [r3]
 641 009a 0028     		cmp	r0, #0
 642 009c CAD0     		beq	.L97
 643 009e 0949     		ldr	r1, .L107+28
 644 00a0 FFF7FEFF 		bl	vQueueAddToRegistry
 645 00a4 C6E7     		b	.L97
 646              	.L108:
 647 00a6 C046     		.align	2
 648              	.L107:
 649 00a8 00000000 		.word	.LANCHOR1
 650 00ac 00000000 		.word	.LANCHOR4
 651 00b0 00000000 		.word	.LANCHOR5
 652 00b4 00000000 		.word	.LANCHOR0
 653 00b8 00000000 		.word	.LANCHOR2
 654 00bc 00000000 		.word	ucStaticTimerQueueStorage.5524
 655 00c0 00000000 		.word	.LANCHOR6
 656 00c4 00000000 		.word	.LC15
 658              		.section	.text.xTimerCreateStatic,"ax",%progbits
 659              		.align	1
 660              		.p2align 2,,3
 661              		.global	xTimerCreateStatic
 662              		.syntax unified
 663              		.code	16
 664              		.thumb_func
 665              		.fpu softvfp
 667              	xTimerCreateStatic:
 668              		@ args = 8, pretend = 0, frame = 16
 669              		@ frame_needed = 0, uses_anonymous_args = 0
 670 0000 F0B5     		push	{r4, r5, r6, r7, lr}
 671 0002 5746     		mov	r7, r10
 672 0004 4E46     		mov	r6, r9
 673 0006 4546     		mov	r5, r8
 674 0008 DE46     		mov	lr, fp
 675 000a E0B5     		push	{r5, r6, r7, lr}
 676 000c 87B0     		sub	sp, sp, #28
 677 000e 0393     		str	r3, [sp, #12]
 678 0010 3023     		movs	r3, #48
 679 0012 0593     		str	r3, [sp, #20]
 680 0014 059B     		ldr	r3, [sp, #20]
 681 0016 0700     		movs	r7, r0
 682 0018 0D00     		movs	r5, r1
 683 001a 1600     		movs	r6, r2
 684 001c 119C     		ldr	r4, [sp, #68]
 685 001e 302B     		cmp	r3, #48
 686 0020 01D0     		beq	.L110
 687              		.syntax divided
 688              	@ 325 "Middlewares/Third_Party/FreeRTOS/Source/timers.c" 1
 689 0022 72B6     		 cpsid i 
 690              	@ 0 "" 2
 691              		.thumb
ARM GAS  /tmp/cccpfSQT.s 			page 13


 692              		.syntax unified
 693              	.L111:
 694 0024 FEE7     		b	.L111
 695              	.L110:
 696 0026 002C     		cmp	r4, #0
 697 0028 20D0     		beq	.L122
 698 002a 0029     		cmp	r1, #0
 699 002c 20D0     		beq	.L123
 700 002e FFF7FEFF 		bl	vPortEnterCritical
 701 0032 204B     		ldr	r3, .L125
 702 0034 9846     		mov	r8, r3
 703 0036 1B68     		ldr	r3, [r3]
 704 0038 9946     		mov	r9, r3
 705 003a 002B     		cmp	r3, #0
 706 003c 1AD0     		beq	.L124
 707              	.L117:
 708 003e FFF7FEFF 		bl	vPortExitCritical
 709 0042 039B     		ldr	r3, [sp, #12]
 710 0044 201D     		adds	r0, r4, #4
 711 0046 2362     		str	r3, [r4, #32]
 712 0048 109B     		ldr	r3, [sp, #64]
 713 004a 2760     		str	r7, [r4]
 714 004c 6362     		str	r3, [r4, #36]
 715 004e A561     		str	r5, [r4, #24]
 716 0050 E661     		str	r6, [r4, #28]
 717 0052 FFF7FEFF 		bl	vListInitialiseItem
 718 0056 2C23     		movs	r3, #44
 719 0058 0122     		movs	r2, #1
 720 005a 2000     		movs	r0, r4
 721 005c E254     		strb	r2, [r4, r3]
 722 005e 07B0     		add	sp, sp, #28
 723              		@ sp needed
 724 0060 3CBC     		pop	{r2, r3, r4, r5}
 725 0062 9046     		mov	r8, r2
 726 0064 9946     		mov	r9, r3
 727 0066 A246     		mov	r10, r4
 728 0068 AB46     		mov	fp, r5
 729 006a F0BD     		pop	{r4, r5, r6, r7, pc}
 730              	.L122:
 731              		.syntax divided
 732              	@ 330 "Middlewares/Third_Party/FreeRTOS/Source/timers.c" 1
 733 006c 72B6     		 cpsid i 
 734              	@ 0 "" 2
 735              		.thumb
 736              		.syntax unified
 737              	.L113:
 738 006e FEE7     		b	.L113
 739              	.L123:
 740              		.syntax divided
 741              	@ 360 "Middlewares/Third_Party/FreeRTOS/Source/timers.c" 1
 742 0070 72B6     		 cpsid i 
 743              	@ 0 "" 2
 744              		.thumb
 745              		.syntax unified
 746              	.L115:
 747 0072 FEE7     		b	.L115
 748              	.L124:
ARM GAS  /tmp/cccpfSQT.s 			page 14


 749 0074 104B     		ldr	r3, .L125+4
 750 0076 9B46     		mov	fp, r3
 751 0078 1800     		movs	r0, r3
 752 007a FFF7FEFF 		bl	vListInitialise
 753 007e 0F4B     		ldr	r3, .L125+8
 754 0080 1800     		movs	r0, r3
 755 0082 9A46     		mov	r10, r3
 756 0084 FFF7FEFF 		bl	vListInitialise
 757 0088 5A46     		mov	r2, fp
 758 008a 0D4B     		ldr	r3, .L125+12
 759 008c 1021     		movs	r1, #16
 760 008e 1A60     		str	r2, [r3]
 761 0090 5246     		mov	r2, r10
 762 0092 0C4B     		ldr	r3, .L125+16
 763 0094 0A20     		movs	r0, #10
 764 0096 1A60     		str	r2, [r3]
 765 0098 4B46     		mov	r3, r9
 766 009a 0B4A     		ldr	r2, .L125+20
 767 009c 0093     		str	r3, [sp]
 768 009e 0B4B     		ldr	r3, .L125+24
 769 00a0 FFF7FEFF 		bl	xQueueGenericCreateStatic
 770 00a4 4346     		mov	r3, r8
 771 00a6 1860     		str	r0, [r3]
 772 00a8 0028     		cmp	r0, #0
 773 00aa C8D0     		beq	.L117
 774 00ac 0849     		ldr	r1, .L125+28
 775 00ae FFF7FEFF 		bl	vQueueAddToRegistry
 776 00b2 C4E7     		b	.L117
 777              	.L126:
 778              		.align	2
 779              	.L125:
 780 00b4 00000000 		.word	.LANCHOR1
 781 00b8 00000000 		.word	.LANCHOR4
 782 00bc 00000000 		.word	.LANCHOR5
 783 00c0 00000000 		.word	.LANCHOR0
 784 00c4 00000000 		.word	.LANCHOR2
 785 00c8 00000000 		.word	ucStaticTimerQueueStorage.5524
 786 00cc 00000000 		.word	.LANCHOR6
 787 00d0 00000000 		.word	.LC15
 789              		.section	.text.xTimerGenericCommand,"ax",%progbits
 790              		.align	1
 791              		.p2align 2,,3
 792              		.global	xTimerGenericCommand
 793              		.syntax unified
 794              		.code	16
 795              		.thumb_func
 796              		.fpu softvfp
 798              	xTimerGenericCommand:
 799              		@ args = 4, pretend = 0, frame = 16
 800              		@ frame_needed = 0, uses_anonymous_args = 0
 801 0000 70B5     		push	{r4, r5, r6, lr}
 802 0002 1600     		movs	r6, r2
 803 0004 0400     		movs	r4, r0
 804 0006 1A00     		movs	r2, r3
 805 0008 84B0     		sub	sp, sp, #16
 806 000a 0028     		cmp	r0, #0
 807 000c 16D0     		beq	.L134
ARM GAS  /tmp/cccpfSQT.s 			page 15


 808 000e 124D     		ldr	r5, .L136
 809 0010 2868     		ldr	r0, [r5]
 810 0012 0028     		cmp	r0, #0
 811 0014 0FD0     		beq	.L133
 812 0016 0091     		str	r1, [sp]
 813 0018 0196     		str	r6, [sp, #4]
 814 001a 0294     		str	r4, [sp, #8]
 815 001c 0529     		cmp	r1, #5
 816 001e 0FDC     		bgt	.L131
 817 0020 FFF7FEFF 		bl	xTaskGetSchedulerState
 818 0024 0228     		cmp	r0, #2
 819 0026 10D0     		beq	.L135
 820 0028 0023     		movs	r3, #0
 821 002a 0022     		movs	r2, #0
 822 002c 6946     		mov	r1, sp
 823 002e 2868     		ldr	r0, [r5]
 824 0030 FFF7FEFF 		bl	xQueueGenericSend
 825 0034 00E0     		b	.L127
 826              	.L133:
 827 0036 0020     		movs	r0, #0
 828              	.L127:
 829 0038 04B0     		add	sp, sp, #16
 830              		@ sp needed
 831 003a 70BD     		pop	{r4, r5, r6, pc}
 832              	.L134:
 833              		.syntax divided
 834              	@ 386 "Middlewares/Third_Party/FreeRTOS/Source/timers.c" 1
 835 003c 72B6     		 cpsid i 
 836              	@ 0 "" 2
 837              		.thumb
 838              		.syntax unified
 839              	.L129:
 840 003e FEE7     		b	.L129
 841              	.L131:
 842 0040 0023     		movs	r3, #0
 843 0042 6946     		mov	r1, sp
 844 0044 FFF7FEFF 		bl	xQueueGenericSendFromISR
 845 0048 F6E7     		b	.L127
 846              	.L135:
 847 004a 0023     		movs	r3, #0
 848 004c 6946     		mov	r1, sp
 849 004e 2868     		ldr	r0, [r5]
 850 0050 089A     		ldr	r2, [sp, #32]
 851 0052 FFF7FEFF 		bl	xQueueGenericSend
 852 0056 EFE7     		b	.L127
 853              	.L137:
 854              		.align	2
 855              	.L136:
 856 0058 00000000 		.word	.LANCHOR1
 858              		.section	.text.xTimerGetTimerDaemonTaskHandle,"ax",%progbits
 859              		.align	1
 860              		.p2align 2,,3
 861              		.global	xTimerGetTimerDaemonTaskHandle
 862              		.syntax unified
 863              		.code	16
 864              		.thumb_func
 865              		.fpu softvfp
ARM GAS  /tmp/cccpfSQT.s 			page 16


 867              	xTimerGetTimerDaemonTaskHandle:
 868              		@ args = 0, pretend = 0, frame = 0
 869              		@ frame_needed = 0, uses_anonymous_args = 0
 870              		@ link register save eliminated.
 871 0000 034B     		ldr	r3, .L142
 872 0002 1868     		ldr	r0, [r3]
 873 0004 0028     		cmp	r0, #0
 874 0006 00D0     		beq	.L141
 875              		@ sp needed
 876 0008 7047     		bx	lr
 877              	.L141:
 878              		.syntax divided
 879              	@ 428 "Middlewares/Third_Party/FreeRTOS/Source/timers.c" 1
 880 000a 72B6     		 cpsid i 
 881              	@ 0 "" 2
 882              		.thumb
 883              		.syntax unified
 884              	.L140:
 885 000c FEE7     		b	.L140
 886              	.L143:
 887 000e C046     		.align	2
 888              	.L142:
 889 0010 00000000 		.word	.LANCHOR7
 891              		.section	.text.xTimerGetPeriod,"ax",%progbits
 892              		.align	1
 893              		.p2align 2,,3
 894              		.global	xTimerGetPeriod
 895              		.syntax unified
 896              		.code	16
 897              		.thumb_func
 898              		.fpu softvfp
 900              	xTimerGetPeriod:
 901              		@ args = 0, pretend = 0, frame = 0
 902              		@ frame_needed = 0, uses_anonymous_args = 0
 903              		@ link register save eliminated.
 904 0000 0028     		cmp	r0, #0
 905 0002 01D0     		beq	.L147
 906 0004 8069     		ldr	r0, [r0, #24]
 907              		@ sp needed
 908 0006 7047     		bx	lr
 909              	.L147:
 910              		.syntax divided
 911              	@ 437 "Middlewares/Third_Party/FreeRTOS/Source/timers.c" 1
 912 0008 72B6     		 cpsid i 
 913              	@ 0 "" 2
 914              		.thumb
 915              		.syntax unified
 916              	.L146:
 917 000a FEE7     		b	.L146
 919              		.section	.text.xTimerGetExpiryTime,"ax",%progbits
 920              		.align	1
 921              		.p2align 2,,3
 922              		.global	xTimerGetExpiryTime
 923              		.syntax unified
 924              		.code	16
 925              		.thumb_func
 926              		.fpu softvfp
ARM GAS  /tmp/cccpfSQT.s 			page 17


 928              	xTimerGetExpiryTime:
 929              		@ args = 0, pretend = 0, frame = 0
 930              		@ frame_needed = 0, uses_anonymous_args = 0
 931              		@ link register save eliminated.
 932 0000 0028     		cmp	r0, #0
 933 0002 01D0     		beq	.L151
 934 0004 4068     		ldr	r0, [r0, #4]
 935              		@ sp needed
 936 0006 7047     		bx	lr
 937              	.L151:
 938              		.syntax divided
 939              	@ 447 "Middlewares/Third_Party/FreeRTOS/Source/timers.c" 1
 940 0008 72B6     		 cpsid i 
 941              	@ 0 "" 2
 942              		.thumb
 943              		.syntax unified
 944              	.L150:
 945 000a FEE7     		b	.L150
 947              		.section	.text.pcTimerGetName,"ax",%progbits
 948              		.align	1
 949              		.p2align 2,,3
 950              		.global	pcTimerGetName
 951              		.syntax unified
 952              		.code	16
 953              		.thumb_func
 954              		.fpu softvfp
 956              	pcTimerGetName:
 957              		@ args = 0, pretend = 0, frame = 0
 958              		@ frame_needed = 0, uses_anonymous_args = 0
 959              		@ link register save eliminated.
 960 0000 0028     		cmp	r0, #0
 961 0002 01D0     		beq	.L155
 962 0004 0068     		ldr	r0, [r0]
 963              		@ sp needed
 964 0006 7047     		bx	lr
 965              	.L155:
 966              		.syntax divided
 967              	@ 457 "Middlewares/Third_Party/FreeRTOS/Source/timers.c" 1
 968 0008 72B6     		 cpsid i 
 969              	@ 0 "" 2
 970              		.thumb
 971              		.syntax unified
 972              	.L154:
 973 000a FEE7     		b	.L154
 975              		.section	.text.xTimerIsTimerActive,"ax",%progbits
 976              		.align	1
 977              		.p2align 2,,3
 978              		.global	xTimerIsTimerActive
 979              		.syntax unified
 980              		.code	16
 981              		.thumb_func
 982              		.fpu softvfp
 984              	xTimerIsTimerActive:
 985              		@ args = 0, pretend = 0, frame = 0
 986              		@ frame_needed = 0, uses_anonymous_args = 0
 987 0000 10B5     		push	{r4, lr}
 988 0002 041E     		subs	r4, r0, #0
ARM GAS  /tmp/cccpfSQT.s 			page 18


 989 0004 08D0     		beq	.L159
 990 0006 FFF7FEFF 		bl	vPortEnterCritical
 991 000a 6469     		ldr	r4, [r4, #20]
 992              		@ sp needed
 993 000c 631E     		subs	r3, r4, #1
 994 000e 9C41     		sbcs	r4, r4, r3
 995 0010 FFF7FEFF 		bl	vPortExitCritical
 996 0014 2000     		movs	r0, r4
 997 0016 10BD     		pop	{r4, pc}
 998              	.L159:
 999              		.syntax divided
 1000              	@ 950 "Middlewares/Third_Party/FreeRTOS/Source/timers.c" 1
 1001 0018 72B6     		 cpsid i 
 1002              	@ 0 "" 2
 1003              		.thumb
 1004              		.syntax unified
 1005              	.L158:
 1006 001a FEE7     		b	.L158
 1008              		.section	.text.pvTimerGetTimerID,"ax",%progbits
 1009              		.align	1
 1010              		.p2align 2,,3
 1011              		.global	pvTimerGetTimerID
 1012              		.syntax unified
 1013              		.code	16
 1014              		.thumb_func
 1015              		.fpu softvfp
 1017              	pvTimerGetTimerID:
 1018              		@ args = 0, pretend = 0, frame = 0
 1019              		@ frame_needed = 0, uses_anonymous_args = 0
 1020 0000 10B5     		push	{r4, lr}
 1021 0002 041E     		subs	r4, r0, #0
 1022 0004 06D0     		beq	.L163
 1023 0006 FFF7FEFF 		bl	vPortEnterCritical
 1024 000a 246A     		ldr	r4, [r4, #32]
 1025              		@ sp needed
 1026 000c FFF7FEFF 		bl	vPortExitCritical
 1027 0010 2000     		movs	r0, r4
 1028 0012 10BD     		pop	{r4, pc}
 1029              	.L163:
 1030              		.syntax divided
 1031              	@ 971 "Middlewares/Third_Party/FreeRTOS/Source/timers.c" 1
 1032 0014 72B6     		 cpsid i 
 1033              	@ 0 "" 2
 1034              		.thumb
 1035              		.syntax unified
 1036              	.L162:
 1037 0016 FEE7     		b	.L162
 1039              		.section	.text.vTimerSetTimerID,"ax",%progbits
 1040              		.align	1
 1041              		.p2align 2,,3
 1042              		.global	vTimerSetTimerID
 1043              		.syntax unified
 1044              		.code	16
 1045              		.thumb_func
 1046              		.fpu softvfp
 1048              	vTimerSetTimerID:
 1049              		@ args = 0, pretend = 0, frame = 0
ARM GAS  /tmp/cccpfSQT.s 			page 19


 1050              		@ frame_needed = 0, uses_anonymous_args = 0
 1051 0000 70B5     		push	{r4, r5, r6, lr}
 1052 0002 0400     		movs	r4, r0
 1053 0004 0D00     		movs	r5, r1
 1054 0006 0028     		cmp	r0, #0
 1055 0008 05D0     		beq	.L167
 1056 000a FFF7FEFF 		bl	vPortEnterCritical
 1057 000e 2562     		str	r5, [r4, #32]
 1058 0010 FFF7FEFF 		bl	vPortExitCritical
 1059              		@ sp needed
 1060 0014 70BD     		pop	{r4, r5, r6, pc}
 1061              	.L167:
 1062              		.syntax divided
 1063              	@ 987 "Middlewares/Third_Party/FreeRTOS/Source/timers.c" 1
 1064 0016 72B6     		 cpsid i 
 1065              	@ 0 "" 2
 1066              		.thumb
 1067              		.syntax unified
 1068              	.L166:
 1069 0018 FEE7     		b	.L166
 1071 001a C046     		.section	.text.xTimerPendFunctionCallFromISR,"ax",%progbits
 1072              		.align	1
 1073              		.p2align 2,,3
 1074              		.global	xTimerPendFunctionCallFromISR
 1075              		.syntax unified
 1076              		.code	16
 1077              		.thumb_func
 1078              		.fpu softvfp
 1080              	xTimerPendFunctionCallFromISR:
 1081              		@ args = 0, pretend = 0, frame = 16
 1082              		@ frame_needed = 0, uses_anonymous_args = 0
 1083 0000 10B5     		push	{r4, lr}
 1084 0002 1400     		movs	r4, r2
 1085 0004 1A00     		movs	r2, r3
 1086 0006 0223     		movs	r3, #2
 1087 0008 84B0     		sub	sp, sp, #16
 1088 000a 5B42     		rsbs	r3, r3, #0
 1089 000c 0093     		str	r3, [sp]
 1090 000e 054B     		ldr	r3, .L169
 1091 0010 0190     		str	r0, [sp, #4]
 1092 0012 0291     		str	r1, [sp, #8]
 1093 0014 1868     		ldr	r0, [r3]
 1094 0016 6946     		mov	r1, sp
 1095 0018 0023     		movs	r3, #0
 1096 001a 0394     		str	r4, [sp, #12]
 1097 001c FFF7FEFF 		bl	xQueueGenericSendFromISR
 1098 0020 04B0     		add	sp, sp, #16
 1099              		@ sp needed
 1100 0022 10BD     		pop	{r4, pc}
 1101              	.L170:
 1102              		.align	2
 1103              	.L169:
 1104 0024 00000000 		.word	.LANCHOR1
 1106              		.section	.text.xTimerPendFunctionCall,"ax",%progbits
 1107              		.align	1
 1108              		.p2align 2,,3
 1109              		.global	xTimerPendFunctionCall
ARM GAS  /tmp/cccpfSQT.s 			page 20


 1110              		.syntax unified
 1111              		.code	16
 1112              		.thumb_func
 1113              		.fpu softvfp
 1115              	xTimerPendFunctionCall:
 1116              		@ args = 0, pretend = 0, frame = 16
 1117              		@ frame_needed = 0, uses_anonymous_args = 0
 1118 0000 30B5     		push	{r4, r5, lr}
 1119 0002 1400     		movs	r4, r2
 1120 0004 1A00     		movs	r2, r3
 1121 0006 0A4B     		ldr	r3, .L175
 1122 0008 0500     		movs	r5, r0
 1123 000a 1868     		ldr	r0, [r3]
 1124 000c 85B0     		sub	sp, sp, #20
 1125 000e 0028     		cmp	r0, #0
 1126 0010 0BD0     		beq	.L174
 1127 0012 0123     		movs	r3, #1
 1128 0014 5B42     		rsbs	r3, r3, #0
 1129 0016 0093     		str	r3, [sp]
 1130 0018 0291     		str	r1, [sp, #8]
 1131 001a 0023     		movs	r3, #0
 1132 001c 6946     		mov	r1, sp
 1133 001e 0195     		str	r5, [sp, #4]
 1134 0020 0394     		str	r4, [sp, #12]
 1135 0022 FFF7FEFF 		bl	xQueueGenericSend
 1136 0026 05B0     		add	sp, sp, #20
 1137              		@ sp needed
 1138 0028 30BD     		pop	{r4, r5, pc}
 1139              	.L174:
 1140              		.syntax divided
 1141              	@ 1031 "Middlewares/Third_Party/FreeRTOS/Source/timers.c" 1
 1142 002a 72B6     		 cpsid i 
 1143              	@ 0 "" 2
 1144              		.thumb
 1145              		.syntax unified
 1146              	.L173:
 1147 002c FEE7     		b	.L173
 1148              	.L176:
 1149 002e C046     		.align	2
 1150              	.L175:
 1151 0030 00000000 		.word	.LANCHOR1
 1153              		.section	.text.uxTimerGetTimerNumber,"ax",%progbits
 1154              		.align	1
 1155              		.p2align 2,,3
 1156              		.global	uxTimerGetTimerNumber
 1157              		.syntax unified
 1158              		.code	16
 1159              		.thumb_func
 1160              		.fpu softvfp
 1162              	uxTimerGetTimerNumber:
 1163              		@ args = 0, pretend = 0, frame = 0
 1164              		@ frame_needed = 0, uses_anonymous_args = 0
 1165              		@ link register save eliminated.
 1166 0000 806A     		ldr	r0, [r0, #40]
 1167              		@ sp needed
 1168 0002 7047     		bx	lr
 1170              		.section	.text.vTimerSetTimerNumber,"ax",%progbits
ARM GAS  /tmp/cccpfSQT.s 			page 21


 1171              		.align	1
 1172              		.p2align 2,,3
 1173              		.global	vTimerSetTimerNumber
 1174              		.syntax unified
 1175              		.code	16
 1176              		.thumb_func
 1177              		.fpu softvfp
 1179              	vTimerSetTimerNumber:
 1180              		@ args = 0, pretend = 0, frame = 0
 1181              		@ frame_needed = 0, uses_anonymous_args = 0
 1182              		@ link register save eliminated.
 1183              		@ sp needed
 1184 0000 8162     		str	r1, [r0, #40]
 1185 0002 7047     		bx	lr
 1187              		.section	.bss.pxCurrentTimerList,"aw",%nobits
 1188              		.align	2
 1189              		.set	.LANCHOR0,. + 0
 1192              	pxCurrentTimerList:
 1193 0000 00000000 		.space	4
 1194              		.section	.bss.pxOverflowTimerList,"aw",%nobits
 1195              		.align	2
 1196              		.set	.LANCHOR2,. + 0
 1199              	pxOverflowTimerList:
 1200 0000 00000000 		.space	4
 1201              		.section	.bss.ucStaticTimerQueueStorage.5524,"aw",%nobits
 1202              		.align	2
 1205              	ucStaticTimerQueueStorage.5524:
 1206 0000 00000000 		.space	160
 1206      00000000 
 1206      00000000 
 1206      00000000 
 1206      00000000 
 1207              		.section	.bss.xActiveTimerList1,"aw",%nobits
 1208              		.align	2
 1209              		.set	.LANCHOR4,. + 0
 1212              	xActiveTimerList1:
 1213 0000 00000000 		.space	20
 1213      00000000 
 1213      00000000 
 1213      00000000 
 1213      00000000 
 1214              		.section	.bss.xActiveTimerList2,"aw",%nobits
 1215              		.align	2
 1216              		.set	.LANCHOR5,. + 0
 1219              	xActiveTimerList2:
 1220 0000 00000000 		.space	20
 1220      00000000 
 1220      00000000 
 1220      00000000 
 1220      00000000 
 1221              		.section	.bss.xLastTime.5473,"aw",%nobits
 1222              		.align	2
 1223              		.set	.LANCHOR3,. + 0
 1226              	xLastTime.5473:
 1227 0000 00000000 		.space	4
 1228              		.section	.bss.xStaticTimerQueue.5523,"aw",%nobits
 1229              		.align	2
ARM GAS  /tmp/cccpfSQT.s 			page 22


 1230              		.set	.LANCHOR6,. + 0
 1233              	xStaticTimerQueue.5523:
 1234 0000 00000000 		.space	80
 1234      00000000 
 1234      00000000 
 1234      00000000 
 1234      00000000 
 1235              		.section	.bss.xTimerQueue,"aw",%nobits
 1236              		.align	2
 1237              		.set	.LANCHOR1,. + 0
 1240              	xTimerQueue:
 1241 0000 00000000 		.space	4
 1242              		.section	.bss.xTimerTaskHandle,"aw",%nobits
 1243              		.align	2
 1244              		.set	.LANCHOR7,. + 0
 1247              	xTimerTaskHandle:
 1248 0000 00000000 		.space	4
 1249              		.ident	"GCC: (15:9-2019-q4-0ubuntu1) 9.2.1 20191025 (release) [ARM/arm-9-branch revision 277599]"
ARM GAS  /tmp/cccpfSQT.s 			page 23

